# SymbolsHelper-Confirmed: 6.0.0 amd64 armel armhf i386 loong64 mips64el powerpc ppc64 ppc64el riscv64 s390x sparc64
libKF6WidgetsAddons.so.6 libkf6widgetsaddons6 #MINVER#
* Build-Depends-Package: libkf6widgetsaddons-dev
 _ZGVZN9QMetaType21registerConverterImplI4QMapI5QDate7QStringE9QIterableI16QMetaAssociationEEEbSt8functionIFbPKvPvEES_S_E10unregister@Base 6.0.0
 _ZGVZN9QMetaType21registerConverterImplI5QListI12QKeySequenceE9QIterableI13QMetaSequenceEEEbSt8functionIFbPKvPvEES_S_E10unregister@Base 6.0.0
 _ZGVZN9QMetaType21registerConverterImplI5QListI5QCharE9QIterableI13QMetaSequenceEEEbSt8functionIFbPKvPvEES_S_E10unregister@Base 6.0.0
 _ZGVZN9QMetaType21registerConverterImplI5QListI5QTimeE9QIterableI13QMetaSequenceEEEbSt8functionIFbPKvPvEES_S_E10unregister@Base 6.0.0
 _ZGVZN9QMetaType21registerConverterImplI5QListI6QColorE9QIterableI13QMetaSequenceEEEbSt8functionIFbPKvPvEES_S_E10unregister@Base 6.0.0
 _ZGVZN9QMetaType21registerConverterImplI5QListI7QLocaleE9QIterableI13QMetaSequenceEEEbSt8functionIFbPKvPvEES_S_E10unregister@Base 6.0.0
 _ZGVZN9QMetaType21registerConverterImplI5QListIiE9QIterableI13QMetaSequenceEEEbSt8functionIFbPKvPvEES_S_E10unregister@Base 6.0.0
 _ZGVZN9QMetaType21registerConverterImplI5QListIjE9QIterableI13QMetaSequenceEEEbSt8functionIFbPKvPvEES_S_E10unregister@Base 6.0.0
 _ZGVZN9QMetaType23registerMutableViewImplI4QMapI5QDate7QStringE9QIterableI16QMetaAssociationEEEbSt8functionIFbPvS9_EES_S_E10unregister@Base 6.0.0
 _ZGVZN9QMetaType23registerMutableViewImplI5QListI12QKeySequenceE9QIterableI13QMetaSequenceEEEbSt8functionIFbPvS8_EES_S_E10unregister@Base 6.0.0
 _ZGVZN9QMetaType23registerMutableViewImplI5QListI5QCharE9QIterableI13QMetaSequenceEEEbSt8functionIFbPvS8_EES_S_E10unregister@Base 6.0.0
 _ZGVZN9QMetaType23registerMutableViewImplI5QListI5QTimeE9QIterableI13QMetaSequenceEEEbSt8functionIFbPvS8_EES_S_E10unregister@Base 6.0.0
 _ZGVZN9QMetaType23registerMutableViewImplI5QListI6QColorE9QIterableI13QMetaSequenceEEEbSt8functionIFbPvS8_EES_S_E10unregister@Base 6.0.0
 _ZGVZN9QMetaType23registerMutableViewImplI5QListI7QLocaleE9QIterableI13QMetaSequenceEEEbSt8functionIFbPvS8_EES_S_E10unregister@Base 6.0.0
 _ZGVZN9QMetaType23registerMutableViewImplI5QListIiE9QIterableI13QMetaSequenceEEEbSt8functionIFbPvS7_EES_S_E10unregister@Base 6.0.0
 _ZGVZN9QMetaType23registerMutableViewImplI5QListIjE9QIterableI13QMetaSequenceEEEbSt8functionIFbPvS7_EES_S_E10unregister@Base 6.0.0
 _ZN10KPageModel11qt_metacallEN11QMetaObject4CallEiPPv@Base 6.0.0
 _ZN10KPageModel11qt_metacastEPKc@Base 6.0.0
 _ZN10KPageModel16staticMetaObjectE@Base 6.0.0
 _ZN10KPageModelC1EP7QObject@Base 6.0.0
 _ZN10KPageModelC2EP7QObject@Base 6.0.0
 _ZN10KPageModelD0Ev@Base 6.0.0
 _ZN10KPageModelD1Ev@Base 6.0.0
 _ZN10KPageModelD2Ev@Base 6.0.0
 _ZN10KSeparator11qt_metacallEN11QMetaObject4CallEiPPv@Base 6.0.0
 _ZN10KSeparator11qt_metacastEPKc@Base 6.0.0
 _ZN10KSeparator14setOrientationEN2Qt11OrientationE@Base 6.0.0
 _ZN10KSeparator16staticMetaObjectE@Base 6.0.0
 _ZN10KSeparatorC1EN2Qt11OrientationEP7QWidget6QFlagsINS0_10WindowTypeEE@Base 6.0.0
 _ZN10KSeparatorC1EP7QWidget6QFlagsIN2Qt10WindowTypeEE@Base 6.0.0
 _ZN10KSeparatorC2EN2Qt11OrientationEP7QWidget6QFlagsINS0_10WindowTypeEE@Base 6.0.0
 _ZN10KSeparatorC2EP7QWidget6QFlagsIN2Qt10WindowTypeEE@Base 6.0.0
 _ZN10KSeparatorD0Ev@Base 6.0.0
 _ZN10KSeparatorD1Ev@Base 6.0.0
 _ZN10KSeparatorD2Ev@Base 6.0.0
 _ZN11KActionMenu11qt_metacallEN11QMetaObject4CallEiPPv@Base 6.0.0
 _ZN11KActionMenu11qt_metacastEPKc@Base 6.0.0
 _ZN11KActionMenu12addSeparatorEv@Base 6.0.0
 _ZN11KActionMenu12createWidgetEP7QWidget@Base 6.0.0
 _ZN11KActionMenu12insertActionEP7QActionS1_@Base 6.0.0
 _ZN11KActionMenu12removeActionEP7QAction@Base 6.0.0
 _ZN11KActionMenu12setPopupModeEN11QToolButton19ToolButtonPopupModeE@Base 6.0.0
 _ZN11KActionMenu15insertSeparatorEP7QAction@Base 6.0.0
 _ZN11KActionMenu16staticMetaObjectE@Base 6.0.0
 _ZN11KActionMenu9addActionEP7QAction@Base 6.0.0
 _ZN11KActionMenuC1EP7QObject@Base 6.0.0
 _ZN11KActionMenuC1ERK5QIconRK7QStringP7QObject@Base 6.0.0
 _ZN11KActionMenuC1ERK7QStringP7QObject@Base 6.0.0
 _ZN11KActionMenuC2EP7QObject@Base 6.0.0
 _ZN11KActionMenuC2ERK5QIconRK7QStringP7QObject@Base 6.0.0
 _ZN11KActionMenuC2ERK7QStringP7QObject@Base 6.0.0
 _ZN11KActionMenuD0Ev@Base 6.0.0
 _ZN11KActionMenuD1Ev@Base 6.0.0
 _ZN11KActionMenuD2Ev@Base 6.0.0
 _ZN11KCharSelect11qt_metacallEN11QMetaObject4CallEiPPv@Base 6.0.0
 _ZN11KCharSelect11qt_metacastEPKc@Base 6.0.0
 _ZN11KCharSelect12charSelectedERK5QChar@Base 6.0.0
 _ZN11KCharSelect14setCurrentCharERK5QChar@Base 6.0.0
 _ZN11KCharSelect14setCurrentFontERK5QFont@Base 6.0.0
 _ZN11KCharSelect16staticMetaObjectE@Base 6.0.0
 _ZN11KCharSelect17codePointSelectedEj@Base 6.0.0
 _ZN11KCharSelect18currentCharChangedERK5QChar@Base 6.0.0
 _ZN11KCharSelect18currentFontChangedERK5QFont@Base 6.0.0
 _ZN11KCharSelect19setAllPlanesEnabledEb@Base 6.0.0
 _ZN11KCharSelect19setCurrentCodePointEj@Base 6.0.0
 _ZN11KCharSelect21displayedCharsChangedEv@Base 6.0.0
 _ZN11KCharSelect23currentCodePointChangedEj@Base 6.0.0
 _ZN11KCharSelectC1EP7QWidget6QFlagsINS_7ControlEE@Base 6.0.0
 _ZN11KCharSelectC1EP7QWidgetP7QObject6QFlagsINS_7ControlEE@Base 6.0.0
 _ZN11KCharSelectC2EP7QWidget6QFlagsINS_7ControlEE@Base 6.0.0
 _ZN11KCharSelectC2EP7QWidgetP7QObject6QFlagsINS_7ControlEE@Base 6.0.0
 _ZN11KCharSelectD0Ev@Base 6.0.0
 _ZN11KCharSelectD1Ev@Base 6.0.0
 _ZN11KCharSelectD2Ev@Base 6.0.0
 _ZN11KColorCombo10paintEventEP11QPaintEvent@Base 6.0.0
 _ZN11KColorCombo11highlightedERK6QColor@Base 6.0.0
 _ZN11KColorCombo11qt_metacallEN11QMetaObject4CallEiPPv@Base 6.0.0
 _ZN11KColorCombo11qt_metacastEPKc@Base 6.0.0
 _ZN11KColorCombo13showEmptyListEv@Base 6.0.0
 _ZN11KColorCombo16staticMetaObjectE@Base 6.0.0
 _ZN11KColorCombo8setColorERK6QColor@Base 6.0.0
 _ZN11KColorCombo9activatedERK6QColor@Base 6.0.0
 _ZN11KColorCombo9setColorsERK5QListI6QColorE@Base 6.0.0
 _ZN11KColorComboC1EP7QWidget@Base 6.0.0
 _ZN11KColorComboC2EP7QWidget@Base 6.0.0
 _ZN11KColorComboD0Ev@Base 6.0.0
 _ZN11KColorComboD1Ev@Base 6.0.0
 _ZN11KColorComboD2Ev@Base 6.0.0
 _ZN11KDatePicker11changeEventEP6QEvent@Base 6.0.0
 _ZN11KDatePicker11dateChangedERK5QDate@Base 6.0.0
 _ZN11KDatePicker11dateEnteredERK5QDate@Base 6.0.0
 _ZN11KDatePicker11eventFilterEP7QObjectP6QEvent@Base 6.0.0
 _ZN11KDatePicker11qt_metacallEN11QMetaObject4CallEiPPv@Base 6.0.0
 _ZN11KDatePicker11qt_metacastEPKc@Base 6.0.0
 _ZN11KDatePicker11resizeEventEP12QResizeEvent@Base 6.0.0
 _ZN11KDatePicker11setFontSizeEi@Base 6.0.0
 _ZN11KDatePicker12dateSelectedERK5QDate@Base 6.0.0
 _ZN11KDatePicker12tableClickedEv@Base 6.0.0
 _ZN11KDatePicker12weekSelectedEi@Base 6.0.0
 _ZN11KDatePicker14setCloseButtonEb@Base 6.0.0
 _ZN11KDatePicker15dateChangedSlotERK5QDate@Base 6.0.0
 _ZN11KDatePicker16lineEnterPressedEv@Base 6.0.0
 _ZN11KDatePicker16staticMetaObjectE@Base 6.0.0
 _ZN11KDatePicker16tableClickedSlotEv@Base 6.0.0
 _ZN11KDatePicker17selectYearClickedEv@Base 6.0.0
 _ZN11KDatePicker18selectMonthClickedEv@Base 6.0.0
 _ZN11KDatePicker18todayButtonClickedEv@Base 6.0.0
 _ZN11KDatePicker18yearForwardClickedEv@Base 6.0.0
 _ZN11KDatePicker19monthForwardClickedEv@Base 6.0.0
 _ZN11KDatePicker19uncheckYearSelectorEv@Base 6.0.0
 _ZN11KDatePicker19yearBackwardClickedEv@Base 6.0.0
 _ZN11KDatePicker20monthBackwardClickedEv@Base 6.0.0
 _ZN11KDatePicker7setDateERK5QDate@Base 6.0.0
 _ZN11KDatePickerC1EP7QWidget@Base 6.0.0
 _ZN11KDatePickerC1ERK5QDateP7QWidget@Base 6.0.0
 _ZN11KDatePickerC2EP7QWidget@Base 6.0.0
 _ZN11KDatePickerC2ERK5QDateP7QWidget@Base 6.0.0
 _ZN11KDatePickerD0Ev@Base 6.0.0
 _ZN11KDatePickerD1Ev@Base 6.0.0
 _ZN11KDatePickerD2Ev@Base 6.0.0
 _ZN11KDualAction11qt_metacallEN11QMetaObject4CallEiPPv@Base 6.0.0
 _ZN11KDualAction11qt_metacastEPKc@Base 6.0.0
 _ZN11KDualAction13activeChangedEb@Base 6.0.0
 _ZN11KDualAction13setActiveIconERK5QIcon@Base 6.0.0
 _ZN11KDualAction13setActiveTextERK7QString@Base 6.0.0
 _ZN11KDualAction13setAutoToggleEb@Base 6.0.0
 _ZN11KDualAction15setInactiveIconERK5QIcon@Base 6.0.0
 _ZN11KDualAction15setInactiveTextERK7QString@Base 6.0.0
 _ZN11KDualAction16setActiveGuiItemERK8KGuiItem@Base 6.0.0
 _ZN11KDualAction16setActiveToolTipERK7QString@Base 6.0.0
 _ZN11KDualAction16setIconForStatesERK5QIcon@Base 6.0.0
 _ZN11KDualAction16staticMetaObjectE@Base 6.0.0
 _ZN11KDualAction18setInactiveGuiItemERK8KGuiItem@Base 6.0.0
 _ZN11KDualAction18setInactiveToolTipERK7QString@Base 6.0.0
 _ZN11KDualAction19activeChangedByUserEb@Base 6.0.0
 _ZN11KDualAction9setActiveEb@Base 6.0.0
 _ZN11KDualActionC1EP7QObject@Base 6.0.0
 _ZN11KDualActionC1ERK7QStringS2_P7QObject@Base 6.0.0
 _ZN11KDualActionC2EP7QObject@Base 6.0.0
 _ZN11KDualActionC2ERK7QStringS2_P7QObject@Base 6.0.0
 _ZN11KDualActionD0Ev@Base 6.0.0
 _ZN11KDualActionD1Ev@Base 6.0.0
 _ZN11KDualActionD2Ev@Base 6.0.0
 _ZN11KFontAction11qt_metacallEN11QMetaObject4CallEiPPv@Base 6.0.0
 _ZN11KFontAction11qt_metacastEPKc@Base 6.0.0
 _ZN11KFontAction12createWidgetEP7QWidget@Base 6.0.0
 _ZN11KFontAction16staticMetaObjectE@Base 6.0.0
 _ZN11KFontAction7setFontERK7QString@Base 6.0.0
 _ZN11KFontActionC1EP7QObject@Base 6.0.0
 _ZN11KFontActionC1ERK5QIconRK7QStringP7QObject@Base 6.0.0
 _ZN11KFontActionC1ERK7QStringP7QObject@Base 6.0.0
 _ZN11KFontActionC1EjP7QObject@Base 6.0.0
 _ZN11KFontActionC2EP7QObject@Base 6.0.0
 _ZN11KFontActionC2ERK5QIconRK7QStringP7QObject@Base 6.0.0
 _ZN11KFontActionC2ERK7QStringP7QObject@Base 6.0.0
 _ZN11KFontActionC2EjP7QObject@Base 6.0.0
 _ZN11KFontActionD0Ev@Base 6.0.0
 _ZN11KFontActionD1Ev@Base 6.0.0
 _ZN11KFontActionD2Ev@Base 6.0.0
 _ZN11KJobWidgets13userTimestampEP7QObject@Base 6.0.0
 _ZN11KJobWidgets19updateUserTimestampEP7QObjectm@Base 6.0.0
 _ZN11KJobWidgets6windowEP7QObject@Base 6.0.0
 _ZN11KJobWidgets9setWindowEP7QObjectP7QWidget@Base 6.0.0
 _ZN11KMessageBox10messageBoxEP7QWidgetNS_10DialogTypeERK7QStringS5_RK8KGuiItemS8_S8_S5_6QFlagsINS_6OptionEE@Base 6.0.0
 _ZN11KMessageBox11informationEP7QWidgetRK7QStringS4_S4_6QFlagsINS_6OptionEE@Base 6.0.0
 (subst)_ZN11KMessageBox12errorListWIdE{quintptr}RK7QStringRK5QListIS0_ES2_6QFlagsINS_6OptionEE@Base 6.0.0
 _ZN11KMessageBox13detailedErrorEP7QWidgetRK7QStringS4_S4_6QFlagsINS_6OptionEE@Base 6.0.0
 _ZN11KMessageBox13detailedErrorEP7QWidgetRK7QStringS4_S4_RK8KGuiItem6QFlagsINS_6OptionEE@Base 6.0.0
 _ZN11KMessageBox13enableMessageERK7QString@Base 6.0.0
 (subst)_ZN11KMessageBox13messageBoxWIdE{quintptr}NS_10DialogTypeERK7QStringS3_RK8KGuiItemS6_S6_S3_6QFlagsINS_6OptionEE@Base 6.0.0
 (subst)_ZN11KMessageBox14informationWIdE{quintptr}RK7QStringS2_S2_6QFlagsINS_6OptionEE@Base 6.0.0
 _ZN11KMessageBox15informationListEP7QWidgetRK7QStringRK5QListIS2_ES4_S4_6QFlagsINS_6OptionEE@Base 6.0.0
 (subst)_ZN11KMessageBox16detailedErrorWIdE{quintptr}RK7QStringS2_S2_6QFlagsINS_6OptionEE@Base 6.0.0
 (subst)_ZN11KMessageBox16detailedErrorWIdE{quintptr}RK7QStringS2_S2_RK8KGuiItem6QFlagsINS_6OptionEE@Base 6.0.0
 _ZN11KMessageBox17createKMessageBoxEP7QDialogP16QDialogButtonBoxN11QMessageBox4IconERK7QStringRK5QListIS6_ES8_Pb6QFlagsINS_6OptionEES8_@Base 6.0.0
 _ZN11KMessageBox17createKMessageBoxEP7QDialogP16QDialogButtonBoxRK5QIconRK7QStringRK5QListIS7_ES9_Pb6QFlagsINS_6OptionEES9_N11QMessageBox4IconE@Base 6.0.0
 _ZN11KMessageBox17enableAllMessagesEv@Base 6.0.0
 _ZN11KMessageBox17warningTwoActionsEP7QWidgetRK7QStringS4_RK8KGuiItemS7_S4_6QFlagsINS_6OptionEE@Base 6.0.0
 (subst)_ZN11KMessageBox18informationListWIdE{quintptr}RK7QStringRK5QListIS0_ES2_S2_6QFlagsINS_6OptionEE@Base 6.0.0
 _ZN11KMessageBox18questionTwoActionsEP7QWidgetRK7QStringS4_RK8KGuiItemS7_S4_6QFlagsINS_6OptionEE@Base 6.0.0
 _ZN11KMessageBox18setNotifyInterfaceEP26KMessageBoxNotifyInterface@Base 6.0.0
 (subst)_ZN11KMessageBox20warningTwoActionsWIdE{quintptr}RK7QStringS2_RK8KGuiItemS5_S2_6QFlagsINS_6OptionEE@Base 6.0.0
 _ZN11KMessageBox21KMessageBox_exec_hookE@Base 6.0.0
 (subst)_ZN11KMessageBox21questionTwoActionsWIdE{quintptr}RK7QStringS2_RK8KGuiItemS5_S2_6QFlagsINS_6OptionEE@Base 6.0.0
 _ZN11KMessageBox21shouldBeShownContinueERK7QString@Base 6.0.0
 _ZN11KMessageBox21warningContinueCancelEP7QWidgetRK7QStringS4_RK8KGuiItemS7_S4_6QFlagsINS_6OptionEE@Base 6.0.0
 _ZN11KMessageBox21warningTwoActionsListEP7QWidgetRK7QStringRK5QListIS2_ES4_RK8KGuiItemSB_S4_6QFlagsINS_6OptionEE@Base 6.0.0
 _ZN11KMessageBox22questionTwoActionsListEP7QWidgetRK7QStringRK5QListIS2_ES4_RK8KGuiItemSB_S4_6QFlagsINS_6OptionEE@Base 6.0.0
 _ZN11KMessageBox22setDontShowAgainConfigEP7KConfig@Base 6.0.0
 _ZN11KMessageBox23shouldBeShownTwoActionsERK7QStringRNS_10ButtonCodeE@Base 6.0.0
 _ZN11KMessageBox23warningTwoActionsCancelEP7QWidgetRK7QStringS4_RK8KGuiItemS7_S7_S4_6QFlagsINS_6OptionEE@Base 6.0.0
 _ZN11KMessageBox24questionTwoActionsCancelEP7QWidgetRK7QStringS4_RK8KGuiItemS7_S7_S4_6QFlagsINS_6OptionEE@Base 6.0.0
 (subst)_ZN11KMessageBox24warningContinueCancelWIdE{quintptr}RK7QStringS2_RK8KGuiItemS5_S2_6QFlagsINS_6OptionEE@Base 6.0.0
 (subst)_ZN11KMessageBox24warningTwoActionsListWIdE{quintptr}RK7QStringRK5QListIS0_ES2_RK8KGuiItemS9_S2_6QFlagsINS_6OptionEE@Base 6.0.0
 (subst)_ZN11KMessageBox25questionTwoActionsListWIdE{quintptr}RK7QStringRK5QListIS0_ES2_RK8KGuiItemS9_S2_6QFlagsINS_6OptionEE@Base 6.0.0
 _ZN11KMessageBox25saveDontShowAgainContinueERK7QString@Base 6.0.0
 _ZN11KMessageBox25setDontShowAgainInterfaceEP32KMessageBoxDontAskAgainInterface@Base 6.0.0
 _ZN11KMessageBox25warningContinueCancelListEP7QWidgetRK7QStringRK5QListIS2_ES4_RK8KGuiItemSB_S4_6QFlagsINS_6OptionEE@Base 6.0.0
 (subst)_ZN11KMessageBox26warningTwoActionsCancelWIdE{quintptr}RK7QStringS2_RK8KGuiItemS5_S5_S2_6QFlagsINS_6OptionEE@Base 6.0.0
 (subst)_ZN11KMessageBox27questionTwoActionsCancelWIdE{quintptr}RK7QStringS2_RK8KGuiItemS5_S5_S2_6QFlagsINS_6OptionEE@Base 6.0.0
 _ZN11KMessageBox27saveDontShowAgainTwoActionsERK7QStringNS_10ButtonCodeE@Base 6.0.0
 _ZN11KMessageBox27warningTwoActionsCancelListEP7QWidgetRK7QStringRK5QListIS2_ES4_RK8KGuiItemSB_SB_S4_6QFlagsINS_6OptionEE@Base 6.0.0
 (subst)_ZN11KMessageBox28warningContinueCancelListWIdE{quintptr}RK7QStringRK5QListIS0_ES2_RK8KGuiItemS9_S2_6QFlagsINS_6OptionEE@Base 6.0.0
 _ZN11KMessageBox29warningContinueCancelDetailedEP7QWidgetRK7QStringS4_RK8KGuiItemS7_S4_6QFlagsINS_6OptionEES4_@Base 6.0.0
 (subst)_ZN11KMessageBox30warningTwoActionsCancelListWIdE{quintptr}RK7QStringRK5QListIS0_ES2_RK8KGuiItemS9_S9_S2_6QFlagsINS_6OptionEE@Base 6.0.0
 _ZN11KMessageBox5errorEP7QWidgetRK7QStringS4_6QFlagsINS_6OptionEE@Base 6.0.0
 _ZN11KMessageBox5errorEP7QWidgetRK7QStringS4_RK8KGuiItem6QFlagsINS_6OptionEE@Base 6.0.0
 (subst)_ZN11KMessageBox8errorWIdE{quintptr}RK7QStringS2_6QFlagsINS_6OptionEE@Base 6.0.0
 _ZN11KMessageBox9errorListEP7QWidgetRK7QStringRK5QListIS2_ES4_6QFlagsINS_6OptionEE@Base 6.0.0
 _ZN11KPageDialog10addSubPageEP15KPageWidgetItemP7QWidgetRK7QString@Base 6.0.0
 _ZN11KPageDialog10addSubPageEP15KPageWidgetItemS1_@Base 6.0.0
 _ZN11KPageDialog10insertPageEP15KPageWidgetItemP7QWidgetRK7QString@Base 6.0.0
 _ZN11KPageDialog10insertPageEP15KPageWidgetItemS1_@Base 6.0.0
 _ZN11KPageDialog10pageWidgetEv@Base 6.0.0
 _ZN11KPageDialog10removePageEP15KPageWidgetItem@Base 6.0.0
 _ZN11KPageDialog11pageRemovedEP15KPageWidgetItem@Base 6.0.0
 _ZN11KPageDialog11qt_metacallEN11QMetaObject4CallEiPPv@Base 6.0.0
 _ZN11KPageDialog11qt_metacastEPKc@Base 6.0.0
 _ZN11KPageDialog11setFaceTypeENS_8FaceTypeE@Base 6.0.0
 _ZN11KPageDialog12setButtonBoxEP16QDialogButtonBox@Base 6.0.0
 _ZN11KPageDialog13setPageWidgetEP11KPageWidget@Base 6.0.0
 _ZN11KPageDialog14setCurrentPageEP15KPageWidgetItem@Base 6.0.0
 _ZN11KPageDialog15addActionButtonEP15QAbstractButton@Base 6.0.0
 _ZN11KPageDialog16staticMetaObjectE@Base 6.0.0
 _ZN11KPageDialog18currentPageChangedEP15KPageWidgetItemS1_@Base 6.0.0
 _ZN11KPageDialog18setStandardButtonsE6QFlagsIN16QDialogButtonBox14StandardButtonEE@Base 6.0.0
 _ZN11KPageDialog7addPageEP15KPageWidgetItem@Base 6.0.0
 _ZN11KPageDialog7addPageEP7QWidgetRK7QString@Base 6.0.0
 _ZN11KPageDialog9buttonBoxEv@Base 6.0.0
 _ZN11KPageDialogC1EP11KPageWidgetP7QWidget6QFlagsIN2Qt10WindowTypeEE@Base 6.0.0
 _ZN11KPageDialogC1EP7QWidget6QFlagsIN2Qt10WindowTypeEE@Base 6.0.0
 _ZN11KPageDialogC2EP11KPageWidgetP7QWidget6QFlagsIN2Qt10WindowTypeEE@Base 6.0.0
 _ZN11KPageDialogC2EP7QWidget6QFlagsIN2Qt10WindowTypeEE@Base 6.0.0
 _ZN11KPageDialogD0Ev@Base 6.0.0
 _ZN11KPageDialogD1Ev@Base 6.0.0
 _ZN11KPageDialogD2Ev@Base 6.0.0
 _ZN11KPageWidget10addSubPageEP15KPageWidgetItemP7QWidgetRK7QString@Base 6.0.0
 _ZN11KPageWidget10addSubPageEP15KPageWidgetItemS1_@Base 6.0.0
 _ZN11KPageWidget10insertPageEP15KPageWidgetItemP7QWidgetRK7QString@Base 6.0.0
 _ZN11KPageWidget10insertPageEP15KPageWidgetItemS1_@Base 6.0.0
 _ZN11KPageWidget10removePageEP15KPageWidgetItem@Base 6.0.0
 _ZN11KPageWidget11pageRemovedEP15KPageWidgetItem@Base 6.0.0
 _ZN11KPageWidget11pageToggledEP15KPageWidgetItemb@Base 6.0.0
 _ZN11KPageWidget11qt_metacallEN11QMetaObject4CallEiPPv@Base 6.0.0
 _ZN11KPageWidget11qt_metacastEPKc@Base 6.0.0
 _ZN11KPageWidget14setCurrentPageEP15KPageWidgetItem@Base 6.0.0
 _ZN11KPageWidget16staticMetaObjectE@Base 6.0.0
 _ZN11KPageWidget18currentPageChangedEP15KPageWidgetItemS1_@Base 6.0.0
 _ZN11KPageWidget7addPageEP15KPageWidgetItem@Base 6.0.0
 _ZN11KPageWidget7addPageEP7QWidgetRK7QString@Base 6.0.0
 _ZN11KPageWidgetC1EP7QWidget@Base 6.0.0
 _ZN11KPageWidgetC2EP7QWidget@Base 6.0.0
 _ZN11KPageWidgetD0Ev@Base 6.0.0
 _ZN11KPageWidgetD1Ev@Base 6.0.0
 _ZN11KPageWidgetD2Ev@Base 6.0.0
 _ZN11KPopupFrame11qt_metacallEN11QMetaObject4CallEiPPv@Base 6.0.0
 _ZN11KPopupFrame11qt_metacastEPKc@Base 6.0.0
 _ZN11KPopupFrame11resizeEventEP12QResizeEvent@Base 6.0.0
 _ZN11KPopupFrame13keyPressEventEP9QKeyEvent@Base 6.0.0
 _ZN11KPopupFrame13leaveModalityEv@Base 6.0.0
 _ZN11KPopupFrame13setMainWidgetEP7QWidget@Base 6.0.0
 _ZN11KPopupFrame16staticMetaObjectE@Base 6.0.0
 _ZN11KPopupFrame4execERK6QPoint@Base 6.0.0
 _ZN11KPopupFrame4execEii@Base 6.0.0
 _ZN11KPopupFrame5closeEi@Base 6.0.0
 _ZN11KPopupFrame5popupERK6QPoint@Base 6.0.0
 _ZN11KPopupFrame9hideEventEP10QHideEvent@Base 6.0.0
 _ZN11KPopupFrameC1EP7QWidget@Base 6.0.0
 _ZN11KPopupFrameC2EP7QWidget@Base 6.0.0
 _ZN11KPopupFrameD0Ev@Base 6.0.0
 _ZN11KPopupFrameD1Ev@Base 6.0.0
 _ZN11KPopupFrameD2Ev@Base 6.0.0
 _ZN11KXYSelector10drawMarkerEP8QPainterii@Base 6.0.0
 _ZN11KXYSelector10paintEventEP11QPaintEvent@Base 6.0.0
 _ZN11KXYSelector10wheelEventEP11QWheelEvent@Base 6.0.0
 _ZN11KXYSelector11qt_metacallEN11QMetaObject4CallEiPPv@Base 6.0.0
 _ZN11KXYSelector11qt_metacastEPKc@Base 6.0.0
 _ZN11KXYSelector12drawContentsEP8QPainter@Base 6.0.0
 _ZN11KXYSelector12valueChangedEii@Base 6.0.0
 _ZN11KXYSelector14mouseMoveEventEP11QMouseEvent@Base 6.0.0
 _ZN11KXYSelector14setMarkerColorERK6QColor@Base 6.0.0
 _ZN11KXYSelector15mousePressEventEP11QMouseEvent@Base 6.0.0
 _ZN11KXYSelector16staticMetaObjectE@Base 6.0.0
 _ZN11KXYSelector8setRangeEiiii@Base 6.0.0
 _ZN11KXYSelector9setValuesEii@Base 6.0.0
 _ZN11KXYSelector9setXValueEi@Base 6.0.0
 _ZN11KXYSelector9setYValueEi@Base 6.0.0
 _ZN11KXYSelectorC1EP7QWidget@Base 6.0.0
 _ZN11KXYSelectorC2EP7QWidget@Base 6.0.0
 _ZN11KXYSelectorD0Ev@Base 6.0.0
 _ZN11KXYSelectorD1Ev@Base 6.0.0
 _ZN11KXYSelectorD2Ev@Base 6.0.0
 _ZN12KCapacityBar10paintEventEP11QPaintEvent@Base 6.0.0
 _ZN12KCapacityBar11changeEventEP6QEvent@Base 6.0.0
 _ZN12KCapacityBar11qt_metacallEN11QMetaObject4CallEiPPv@Base 6.0.0
 _ZN12KCapacityBar11qt_metacastEPKc@Base 6.0.0
 _ZN12KCapacityBar12setBarHeightEi@Base 6.0.0
 _ZN12KCapacityBar13setContinuousEb@Base 6.0.0
 _ZN12KCapacityBar15setDrawTextModeENS_12DrawTextModeE@Base 6.0.0
 _ZN12KCapacityBar16staticMetaObjectE@Base 6.0.0
 _ZN12KCapacityBar17setFillFullBlocksEb@Base 6.0.0
 _ZN12KCapacityBar26setHorizontalTextAlignmentE6QFlagsIN2Qt13AlignmentFlagEE@Base 6.0.0
 _ZN12KCapacityBar7setTextERK7QString@Base 6.0.0
 _ZN12KCapacityBar8setValueEi@Base 6.0.0
 _ZN12KCapacityBarC1ENS_12DrawTextModeEP7QWidget@Base 6.0.0
 _ZN12KCapacityBarC1EP7QWidget@Base 6.0.0
 _ZN12KCapacityBarC2ENS_12DrawTextModeEP7QWidget@Base 6.0.0
 _ZN12KCapacityBarC2EP7QWidget@Base 6.0.0
 _ZN12KCapacityBarD0Ev@Base 6.0.0
 _ZN12KCapacityBarD1Ev@Base 6.0.0
 _ZN12KCapacityBarD2Ev@Base 6.0.0
 _ZN12KColorButton10paintEventEP11QPaintEvent@Base 6.0.0
 _ZN12KColorButton11qt_metacallEN11QMetaObject4CallEiPPv@Base 6.0.0
 _ZN12KColorButton11qt_metacastEPKc@Base 6.0.0
 _ZN12KColorButton13keyPressEventEP9QKeyEvent@Base 6.0.0
 _ZN12KColorButton14dragEnterEventEP15QDragEnterEvent@Base 6.0.0
 _ZN12KColorButton14mouseMoveEventEP11QMouseEvent@Base 6.0.0
 _ZN12KColorButton15mousePressEventEP11QMouseEvent@Base 6.0.0
 _ZN12KColorButton15setDefaultColorERK6QColor@Base 6.0.0
 _ZN12KColorButton16staticMetaObjectE@Base 6.0.0
 _ZN12KColorButton22setAlphaChannelEnabledEb@Base 6.0.0
 _ZN12KColorButton7changedERK6QColor@Base 6.0.0
 _ZN12KColorButton8setColorERK6QColor@Base 6.0.0
 _ZN12KColorButton9dropEventEP10QDropEvent@Base 6.0.0
 _ZN12KColorButtonC1EP7QWidget@Base 6.0.0
 _ZN12KColorButtonC1ERK6QColorP7QWidget@Base 6.0.0
 _ZN12KColorButtonC1ERK6QColorS2_P7QWidget@Base 6.0.0
 _ZN12KColorButtonC2EP7QWidget@Base 6.0.0
 _ZN12KColorButtonC2ERK6QColorP7QWidget@Base 6.0.0
 _ZN12KColorButtonC2ERK6QColorS2_P7QWidget@Base 6.0.0
 _ZN12KColorButtonD0Ev@Base 6.0.0
 _ZN12KColorButtonD1Ev@Base 6.0.0
 _ZN12KColorButtonD2Ev@Base 6.0.0
 _ZN12KFontChooser11qt_metacallEN11QMetaObject4CallEiPPv@Base 6.0.0
 _ZN12KFontChooser11qt_metacastEPKc@Base 6.0.0
 _ZN12KFontChooser12enableColumnEib@Base 6.0.0
 _ZN12KFontChooser12fontSelectedERK5QFont@Base 6.0.0
 _ZN12KFontChooser13setSampleTextERK7QString@Base 6.0.0
 _ZN12KFontChooser14createFontListEj@Base 6.0.0
 _ZN12KFontChooser16setFontListItemsERK5QListI7QStringE@Base 6.0.0
 _ZN12KFontChooser16staticMetaObjectE@Base 6.0.0
 _ZN12KFontChooser18setBackgroundColorERK6QColor@Base 6.0.0
 _ZN12KFontChooser18setMinVisibleItemsEi@Base 6.0.0
 _ZN12KFontChooser19setSampleBoxVisibleEb@Base 6.0.0
 _ZN12KFontChooser7setFontERK5QFontb@Base 6.0.0
 _ZN12KFontChooser8setColorERK6QColor@Base 6.0.0
 _ZN12KFontChooserC1E6QFlagsINS_11DisplayFlagEEP7QWidget@Base 6.0.0
 _ZN12KFontChooserC1EP7QWidget@Base 6.0.0
 _ZN12KFontChooserC2E6QFlagsINS_11DisplayFlagEEP7QWidget@Base 6.0.0
 _ZN12KFontChooserC2EP7QWidget@Base 6.0.0
 _ZN12KFontChooserD0Ev@Base 6.0.0
 _ZN12KFontChooserD1Ev@Base 6.0.0
 _ZN12KFontChooserD2Ev@Base 6.0.0
 _ZN12KMultiTabBar10fontChangeERK5QFont@Base 6.0.0
 _ZN12KMultiTabBar10paintEventEP11QPaintEvent@Base 6.0.0
 _ZN12KMultiTabBar11qt_metacallEN11QMetaObject4CallEiPPv@Base 6.0.0
 _ZN12KMultiTabBar11qt_metacastEPKc@Base 6.0.0
 _ZN12KMultiTabBar11setPositionENS_20KMultiTabBarPositionE@Base 6.0.0
 _ZN12KMultiTabBar12appendButtonERK5QIconiP5QMenuRK7QString@Base 6.0.0
 _ZN12KMultiTabBar12removeButtonEi@Base 6.0.0
 _ZN12KMultiTabBar15updateSeparatorEv@Base 6.0.0
 _ZN12KMultiTabBar16staticMetaObjectE@Base 6.0.0
 _ZN12KMultiTabBar6setTabEib@Base 6.0.0
 _ZN12KMultiTabBar8setStyleENS_17KMultiTabBarStyleE@Base 6.0.0
 _ZN12KMultiTabBar9appendTabERK5QIconiRK7QString@Base 6.0.0
 _ZN12KMultiTabBar9removeTabEi@Base 6.0.0
 _ZN12KMultiTabBarC1ENS_20KMultiTabBarPositionEP7QWidget@Base 6.0.0
 _ZN12KMultiTabBarC1EP7QWidget@Base 6.0.0
 _ZN12KMultiTabBarC2ENS_20KMultiTabBarPositionEP7QWidget@Base 6.0.0
 _ZN12KMultiTabBarC2EP7QWidget@Base 6.0.0
 _ZN12KMultiTabBarD0Ev@Base 6.0.0
 _ZN12KMultiTabBarD1Ev@Base 6.0.0
 _ZN12KMultiTabBarD2Ev@Base 6.0.0
 _ZN12KTitleWidget10setCommentERK7QStringNS_11MessageTypeE@Base 6.0.0
 _ZN12KTitleWidget11changeEventEP6QEvent@Base 6.0.0
 _ZN12KTitleWidget11eventFilterEP7QObjectP6QEvent@Base 6.0.0
 _ZN12KTitleWidget11qt_metacallEN11QMetaObject4CallEiPPv@Base 6.0.0
 _ZN12KTitleWidget11qt_metacastEPKc@Base 6.0.0
 _ZN12KTitleWidget11setIconSizeERK5QSize@Base 6.0.0
 _ZN12KTitleWidget16staticMetaObjectE@Base 6.0.0
 _ZN12KTitleWidget18setAutoHideTimeoutEi@Base 6.0.0
 _ZN12KTitleWidget5levelEv@Base 6.0.0
 _ZN12KTitleWidget7setIconENS_11MessageTypeENS_14ImageAlignmentE@Base 6.0.0
 _ZN12KTitleWidget7setIconERK5QIconNS_14ImageAlignmentE@Base 6.0.0
 _ZN12KTitleWidget7setTextERK7QString6QFlagsIN2Qt13AlignmentFlagEE@Base 6.0.0
 _ZN12KTitleWidget7setTextERK7QStringNS_11MessageTypeE@Base 6.0.0
 _ZN12KTitleWidget8setBuddyEP7QWidget@Base 6.0.0
 _ZN12KTitleWidget8setLevelEi@Base 6.0.0
 _ZN12KTitleWidget9setWidgetEP7QWidget@Base 6.0.0
 _ZN12KTitleWidget9showEventEP10QShowEvent@Base 6.0.0
 _ZN12KTitleWidgetC1EP7QWidget@Base 6.0.0
 _ZN12KTitleWidgetC2EP7QWidget@Base 6.0.0
 _ZN12KTitleWidgetD0Ev@Base 6.0.0
 _ZN12KTitleWidgetD1Ev@Base 6.0.0
 _ZN12KTitleWidgetD2Ev@Base 6.0.0
 _ZN13KDateComboBox10assignDateERK5QDate@Base 6.0.0
 _ZN13KDateComboBox10dateEditedERK5QDate@Base 6.0.0
 _ZN13KDateComboBox10setDateMapE4QMapI5QDate7QStringE@Base 6.0.0
 _ZN13KDateComboBox10setOptionsE6QFlagsINS_6OptionEE@Base 6.0.0
 _ZN13KDateComboBox10wheelEventEP11QWheelEvent@Base 6.0.0
 _ZN13KDateComboBox11dateChangedERK5QDate@Base 6.0.0
 _ZN13KDateComboBox11dateEnteredERK5QDate@Base 6.0.0
 _ZN13KDateComboBox11eventFilterEP7QObjectP6QEvent@Base 6.0.0
 _ZN13KDateComboBox11qt_metacallEN11QMetaObject4CallEiPPv@Base 6.0.0
 _ZN13KDateComboBox11qt_metacastEPKc@Base 6.0.0
 _ZN13KDateComboBox11resizeEventEP12QResizeEvent@Base 6.0.0
 _ZN13KDateComboBox12focusInEventEP11QFocusEvent@Base 6.0.0
 _ZN13KDateComboBox12setDateRangeERK5QDateS2_RK7QStringS5_@Base 6.0.0
 _ZN13KDateComboBox13focusOutEventEP11QFocusEvent@Base 6.0.0
 _ZN13KDateComboBox13keyPressEventEP9QKeyEvent@Base 6.0.0
 _ZN13KDateComboBox14resetDateRangeEv@Base 6.0.0
 _ZN13KDateComboBox14setMaximumDateERK5QDateRK7QString@Base 6.0.0
 _ZN13KDateComboBox14setMinimumDateERK5QDateRK7QString@Base 6.0.0
 _ZN13KDateComboBox15mousePressEventEP11QMouseEvent@Base 6.0.0
 _ZN13KDateComboBox16resetMaximumDateEv@Base 6.0.0
 _ZN13KDateComboBox16resetMinimumDateEv@Base 6.0.0
 _ZN13KDateComboBox16setDisplayFormatEN7QLocale10FormatTypeE@Base 6.0.0
 _ZN13KDateComboBox16staticMetaObjectE@Base 6.0.0
 _ZN13KDateComboBox7setDateERK5QDate@Base 6.0.0
 _ZN13KDateComboBox9hidePopupEv@Base 6.0.0
 _ZN13KDateComboBox9showPopupEv@Base 6.0.0
 _ZN13KDateComboBoxC1EP7QWidget@Base 6.0.0
 _ZN13KDateComboBoxC2EP7QWidget@Base 6.0.0
 _ZN13KDateComboBoxD0Ev@Base 6.0.0
 _ZN13KDateComboBoxD1Ev@Base 6.0.0
 _ZN13KDateComboBoxD2Ev@Base 6.0.0
 _ZN13KDateTimeEdit10assignDateERK5QDate@Base 6.0.0
 _ZN13KDateTimeEdit10assignTimeERK5QTime@Base 6.0.0
 _ZN13KDateTimeEdit10dateEditedERK5QDate@Base 6.0.0
 _ZN13KDateTimeEdit10setDateMapE4QMapI5QDate7QStringE@Base 6.0.0
 _ZN13KDateTimeEdit10setOptionsE6QFlagsINS_6OptionEE@Base 6.0.0
 _ZN13KDateTimeEdit10timeEditedERK5QTime@Base 6.0.0
 _ZN13KDateTimeEdit11dateChangedERK5QDate@Base 6.0.0
 _ZN13KDateTimeEdit11dateEnteredERK5QDate@Base 6.0.0
 _ZN13KDateTimeEdit11eventFilterEP7QObjectP6QEvent@Base 6.0.0
 _ZN13KDateTimeEdit11qt_metacallEN11QMetaObject4CallEiPPv@Base 6.0.0
 _ZN13KDateTimeEdit11qt_metacastEPKc@Base 6.0.0
 _ZN13KDateTimeEdit11resizeEventEP12QResizeEvent@Base 6.0.0
 _ZN13KDateTimeEdit11setDateTimeERK9QDateTime@Base 6.0.0
 _ZN13KDateTimeEdit11setTimeListE5QListI5QTimeERK7QStringS5_@Base 6.0.0
 _ZN13KDateTimeEdit11setTimeZoneERK9QTimeZone@Base 6.0.0
 _ZN13KDateTimeEdit11timeChangedERK5QTime@Base 6.0.0
 _ZN13KDateTimeEdit11timeEnteredERK5QTime@Base 6.0.0
 _ZN13KDateTimeEdit12focusInEventEP11QFocusEvent@Base 6.0.0
 _ZN13KDateTimeEdit12setTimeZonesERK5QListI9QTimeZoneE@Base 6.0.0
 _ZN13KDateTimeEdit13focusOutEventEP11QFocusEvent@Base 6.0.0
 _ZN13KDateTimeEdit14assignDateTimeERK9QDateTime@Base 6.0.0
 _ZN13KDateTimeEdit14assignTimeZoneERK9QTimeZone@Base 6.0.0
 _ZN13KDateTimeEdit14dateTimeEditedERK9QDateTime@Base 6.0.0
 _ZN13KDateTimeEdit15calendarChangedERK7QLocale@Base 6.0.0
 _ZN13KDateTimeEdit15calendarEnteredERK7QLocale@Base 6.0.0
 _ZN13KDateTimeEdit15dateTimeChangedERK9QDateTime@Base 6.0.0
 _ZN13KDateTimeEdit15dateTimeEnteredERK9QDateTime@Base 6.0.0
 _ZN13KDateTimeEdit15timeZoneChangedERK9QTimeZone@Base 6.0.0
 _ZN13KDateTimeEdit15timeZoneEnteredERK9QTimeZone@Base 6.0.0
 _ZN13KDateTimeEdit16setDateTimeRangeERK9QDateTimeS2_RK7QStringS5_@Base 6.0.0
 _ZN13KDateTimeEdit16staticMetaObjectE@Base 6.0.0
 _ZN13KDateTimeEdit18resetDateTimeRangeEv@Base 6.0.0
 _ZN13KDateTimeEdit18setMaximumDateTimeERK9QDateTimeRK7QString@Base 6.0.0
 _ZN13KDateTimeEdit18setMinimumDateTimeERK9QDateTimeRK7QString@Base 6.0.0
 _ZN13KDateTimeEdit19setTimeListIntervalEi@Base 6.0.0
 _ZN13KDateTimeEdit20resetMaximumDateTimeEv@Base 6.0.0
 _ZN13KDateTimeEdit20resetMinimumDateTimeEv@Base 6.0.0
 _ZN13KDateTimeEdit20setDateDisplayFormatEN7QLocale10FormatTypeE@Base 6.0.0
 _ZN13KDateTimeEdit20setTimeDisplayFormatEN7QLocale10FormatTypeE@Base 6.0.0
 _ZN13KDateTimeEdit22setCalendarLocalesListERK5QListI7QLocaleE@Base 6.0.0
 _ZN13KDateTimeEdit7setDateERK5QDate@Base 6.0.0
 _ZN13KDateTimeEdit7setTimeERK5QTime@Base 6.0.0
 _ZN13KDateTimeEditC1EP7QWidget@Base 6.0.0
 _ZN13KDateTimeEditC2EP7QWidget@Base 6.0.0
 _ZN13KDateTimeEditD0Ev@Base 6.0.0
 _ZN13KDateTimeEditD1Ev@Base 6.0.0
 _ZN13KDateTimeEditD2Ev@Base 6.0.0
 _ZN13KRatingWidget10leaveEventEP6QEvent@Base 6.0.0
 _ZN13KRatingWidget10paintEventEP11QPaintEvent@Base 6.0.0
 _ZN13KRatingWidget10setSpacingEi@Base 6.0.0
 _ZN13KRatingWidget11qt_metacallEN11QMetaObject4CallEiPPv@Base 6.0.0
 _ZN13KRatingWidget11qt_metacastEPKc@Base 6.0.0
 _ZN13KRatingWidget11resizeEventEP12QResizeEvent@Base 6.0.0
 _ZN13KRatingWidget12setAlignmentE6QFlagsIN2Qt13AlignmentFlagEE@Base 6.0.0
 _ZN13KRatingWidget12setMaxRatingEi@Base 6.0.0
 _ZN13KRatingWidget13ratingChangedEi@Base 6.0.0
 _ZN13KRatingWidget13setPixmapSizeEi@Base 6.0.0
 _ZN13KRatingWidget14mouseMoveEventEP11QMouseEvent@Base 6.0.0
 _ZN13KRatingWidget15mousePressEventEP11QMouseEvent@Base 6.0.0
 _ZN13KRatingWidget15setCustomPixmapERK7QPixmap@Base 6.0.0
 _ZN13KRatingWidget16staticMetaObjectE@Base 6.0.0
 _ZN13KRatingWidget18setLayoutDirectionEN2Qt15LayoutDirectionE@Base 6.0.0
 _ZN13KRatingWidget19setHalfStepsEnabledEb@Base 6.0.0
 _ZN13KRatingWidget7setIconERK5QIcon@Base 6.0.0
 _ZN13KRatingWidget9setRatingEi@Base 6.0.0
 _ZN13KRatingWidgetC1EP7QWidget@Base 6.0.0
 _ZN13KRatingWidgetC2EP7QWidget@Base 6.0.0
 _ZN13KRatingWidgetD0Ev@Base 6.0.0
 _ZN13KRatingWidgetD1Ev@Base 6.0.0
 _ZN13KRatingWidgetD2Ev@Base 6.0.0
 _ZN13KSelectAction10changeItemEiRK7QString@Base 6.0.0
 _ZN13KSelectAction11eventFilterEP7QObjectP6QEvent@Base 6.0.0
 _ZN13KSelectAction11qt_metacallEN11QMetaObject4CallEiPPv@Base 6.0.0
 _ZN13KSelectAction11qt_metacastEPKc@Base 6.0.0
 _ZN13KSelectAction11setEditableEb@Base 6.0.0
 _ZN13KSelectAction11slotToggledEb@Base 6.0.0
 _ZN13KSelectAction12createWidgetEP7QWidget@Base 6.0.0
 _ZN13KSelectAction12deleteWidgetEP7QWidget@Base 6.0.0
 _ZN13KSelectAction12insertActionEP7QActionS1_@Base 6.0.0
 _ZN13KSelectAction12removeActionEP7QAction@Base 6.0.0
 _ZN13KSelectAction13setComboWidthEi@Base 6.0.0
 _ZN13KSelectAction13textTriggeredERK7QString@Base 6.0.0
 _ZN13KSelectAction14indexTriggeredEi@Base 6.0.0
 _ZN13KSelectAction14setCurrentItemEi@Base 6.0.0
 _ZN13KSelectAction14setToolBarModeENS_11ToolBarModeE@Base 6.0.0
 _ZN13KSelectAction15actionTriggeredEP7QAction@Base 6.0.0
 _ZN13KSelectAction16removeAllActionsEv@Base 6.0.0
 _ZN13KSelectAction16setCurrentActionEP7QAction@Base 6.0.0
 _ZN13KSelectAction16setCurrentActionERK7QStringN2Qt15CaseSensitivityE@Base 6.0.0
 _ZN13KSelectAction16staticMetaObjectE@Base 6.0.0
 _ZN13KSelectAction19slotActionTriggeredEP7QAction@Base 6.0.0
 _ZN13KSelectAction20setMaxComboViewCountEi@Base 6.0.0
 _ZN13KSelectAction20setMenuAccelsEnabledEb@Base 6.0.0
 _ZN13KSelectAction22setToolButtonPopupModeEN11QToolButton19ToolButtonPopupModeE@Base 6.0.0
 _ZN13KSelectAction5clearEv@Base 6.0.0
 _ZN13KSelectAction5eventEP6QEvent@Base 6.0.0
 _ZN13KSelectAction8setItemsERK5QListI7QStringE@Base 6.0.0
 _ZN13KSelectAction9addActionEP7QAction@Base 6.0.0
 _ZN13KSelectAction9addActionERK5QIconRK7QString@Base 6.0.0
 _ZN13KSelectAction9addActionERK7QString@Base 6.0.0
 _ZN13KSelectActionC1EP7QObject@Base 6.0.0
 _ZN13KSelectActionC1ERK5QIconRK7QStringP7QObject@Base 6.0.0
 _ZN13KSelectActionC1ERK7QStringP7QObject@Base 6.0.0
 _ZN13KSelectActionC2EP7QObject@Base 6.0.0
 _ZN13KSelectActionC2ERK5QIconRK7QStringP7QObject@Base 6.0.0
 _ZN13KSelectActionC2ERK7QStringP7QObject@Base 6.0.0
 _ZN13KSelectActionD0Ev@Base 6.0.0
 _ZN13KSelectActionD1Ev@Base 6.0.0
 _ZN13KSelectActionD2Ev@Base 6.0.0
 _ZN13KTimeComboBox10assignTimeERK5QTime@Base 6.0.0
 _ZN13KTimeComboBox10setOptionsE6QFlagsINS_6OptionEE@Base 6.0.0
 _ZN13KTimeComboBox10timeEditedERK5QTime@Base 6.0.0
 _ZN13KTimeComboBox10wheelEventEP11QWheelEvent@Base 6.0.0
 _ZN13KTimeComboBox11eventFilterEP7QObjectP6QEvent@Base 6.0.0
 _ZN13KTimeComboBox11qt_metacallEN11QMetaObject4CallEiPPv@Base 6.0.0
 _ZN13KTimeComboBox11qt_metacastEPKc@Base 6.0.0
 _ZN13KTimeComboBox11resizeEventEP12QResizeEvent@Base 6.0.0
 _ZN13KTimeComboBox11setTimeListE5QListI5QTimeERK7QStringS5_@Base 6.0.0
 _ZN13KTimeComboBox11timeChangedERK5QTime@Base 6.0.0
 _ZN13KTimeComboBox11timeEnteredERK5QTime@Base 6.0.0
 _ZN13KTimeComboBox12focusInEventEP11QFocusEvent@Base 6.0.0
 _ZN13KTimeComboBox12setTimeRangeERK5QTimeS2_RK7QStringS5_@Base 6.0.0
 _ZN13KTimeComboBox13focusOutEventEP11QFocusEvent@Base 6.0.0
 _ZN13KTimeComboBox13keyPressEventEP9QKeyEvent@Base 6.0.0
 _ZN13KTimeComboBox14resetTimeRangeEv@Base 6.0.0
 _ZN13KTimeComboBox14setMaximumTimeERK5QTimeRK7QString@Base 6.0.0
 _ZN13KTimeComboBox14setMinimumTimeERK5QTimeRK7QString@Base 6.0.0
 _ZN13KTimeComboBox15mousePressEventEP11QMouseEvent@Base 6.0.0
 _ZN13KTimeComboBox16resetMaximumTimeEv@Base 6.0.0
 _ZN13KTimeComboBox16resetMinimumTimeEv@Base 6.0.0
 _ZN13KTimeComboBox16setDisplayFormatEN7QLocale10FormatTypeE@Base 6.0.0
 _ZN13KTimeComboBox16staticMetaObjectE@Base 6.0.0
 _ZN13KTimeComboBox19setTimeListIntervalEi@Base 6.0.0
 _ZN13KTimeComboBox7setTimeERK5QTime@Base 6.0.0
 _ZN13KTimeComboBox9hidePopupEv@Base 6.0.0
 _ZN13KTimeComboBox9showPopupEv@Base 6.0.0
 _ZN13KTimeComboBoxC1EP7QWidget@Base 6.0.0
 _ZN13KTimeComboBoxC2EP7QWidget@Base 6.0.0
 _ZN13KTimeComboBoxD0Ev@Base 6.0.0
 _ZN13KTimeComboBoxD1Ev@Base 6.0.0
 _ZN13KTimeComboBoxD2Ev@Base 6.0.0
 _ZN13KToggleAction11qt_metacallEN11QMetaObject4CallEiPPv@Base 6.0.0
 _ZN13KToggleAction11qt_metacastEPKc@Base 6.0.0
 _ZN13KToggleAction11slotToggledEb@Base 6.0.0
 _ZN13KToggleAction15setCheckedStateERK8KGuiItem@Base 6.0.0
 _ZN13KToggleAction16staticMetaObjectE@Base 6.0.0
 _ZN13KToggleActionC1EP7QObject@Base 6.0.0
 _ZN13KToggleActionC1ERK5QIconRK7QStringP7QObject@Base 6.0.0
 _ZN13KToggleActionC1ERK7QStringP7QObject@Base 6.0.0
 _ZN13KToggleActionC2EP7QObject@Base 6.0.0
 _ZN13KToggleActionC2ERK5QIconRK7QStringP7QObject@Base 6.0.0
 _ZN13KToggleActionC2ERK7QStringP7QObject@Base 6.0.0
 _ZN13KToggleActionD0Ev@Base 6.0.0
 _ZN13KToggleActionD1Ev@Base 6.0.0
 _ZN13KToggleActionD2Ev@Base 6.0.0
 _ZN13KTwoFingerTap11qt_metacallEN11QMetaObject4CallEiPPv@Base 6.0.0
 _ZN13KTwoFingerTap11qt_metacastEPKc@Base 6.0.0
 _ZN13KTwoFingerTap11setScenePosE7QPointF@Base 6.0.0
 _ZN13KTwoFingerTap12setScreenPosE7QPointF@Base 6.0.0
 _ZN13KTwoFingerTap16staticMetaObjectE@Base 6.0.0
 _ZN13KTwoFingerTap6setPosE7QPointF@Base 6.0.0
 _ZN13KTwoFingerTapC1EP7QObject@Base 6.0.0
 _ZN13KTwoFingerTapC2EP7QObject@Base 6.0.0
 _ZN13KTwoFingerTapD0Ev@Base 6.0.0
 _ZN13KTwoFingerTapD1Ev@Base 6.0.0
 _ZN13KTwoFingerTapD2Ev@Base 6.0.0
 _ZN13QMetaSequence12MetaSequenceI5QListI12QKeySequenceEE5valueE@Base 6.0.0
 _ZN13QMetaSequence12MetaSequenceI5QListI5QCharEE5valueE@Base 6.0.0
 _ZN13QMetaSequence12MetaSequenceI5QListI5QTimeEE5valueE@Base 6.0.0
 _ZN13QMetaSequence12MetaSequenceI5QListI6QColorEE5valueE@Base 6.0.0
 _ZN13QMetaSequence12MetaSequenceI5QListI7QLocaleEE5valueE@Base 6.0.0
 _ZN13QMetaSequence12MetaSequenceI5QListIiEE5valueE@Base 6.0.0
 _ZN13QMetaSequence12MetaSequenceI5QListIjEE5valueE@Base 6.0.0
 _ZN14KColumnResizer11eventFilterEP7QObjectP6QEvent@Base 6.0.0
 _ZN14KColumnResizer11qt_metacallEN11QMetaObject4CallEiPPv@Base 6.0.0
 _ZN14KColumnResizer11qt_metacastEPKc@Base 6.0.0
 _ZN14KColumnResizer12removeWidgetEP7QWidget@Base 6.0.0
 _ZN14KColumnResizer16staticMetaObjectE@Base 6.0.0
 _ZN14KColumnResizer20addWidgetsFromLayoutEP7QLayouti@Base 6.0.0
 _ZN14KColumnResizer9addWidgetEP7QWidget@Base 6.0.0
 _ZN14KColumnResizerC1EP7QObject@Base 6.0.0
 _ZN14KColumnResizerC2EP7QObject@Base 6.0.0
 _ZN14KColumnResizerD0Ev@Base 6.0.0
 _ZN14KColumnResizerD1Ev@Base 6.0.0
 _ZN14KColumnResizerD2Ev@Base 6.0.0
 _ZN14KFontRequester11eventFilterEP7QObjectP6QEvent@Base 6.0.0
 _ZN14KFontRequester11qt_metacallEN11QMetaObject4CallEiPPv@Base 6.0.0
 _ZN14KFontRequester11qt_metacastEPKc@Base 6.0.0
 _ZN14KFontRequester12fontSelectedERK5QFont@Base 6.0.0
 _ZN14KFontRequester13setSampleTextERK7QString@Base 6.0.0
 _ZN14KFontRequester16staticMetaObjectE@Base 6.0.0
 _ZN14KFontRequester7setFontERK5QFontb@Base 6.0.0
 _ZN14KFontRequester8setTitleERK7QString@Base 6.0.0
 _ZN14KFontRequesterC1EP7QWidgetb@Base 6.0.0
 _ZN14KFontRequesterC2EP7QWidgetb@Base 6.0.0
 _ZN14KFontRequesterD0Ev@Base 6.0.0
 _ZN14KFontRequesterD1Ev@Base 6.0.0
 _ZN14KFontRequesterD2Ev@Base 6.0.0
 _ZN14KMessageDialog10setButtonsERK8KGuiItemS2_S2_@Base 6.0.0
 _ZN14KMessageDialog10setCaptionERK7QString@Base 6.0.0
 _ZN14KMessageDialog10setDetailsERK7QString@Base 6.0.0
 _ZN14KMessageDialog11qt_metacallEN11QMetaObject4CallEiPPv@Base 6.0.0
 _ZN14KMessageDialog11qt_metacastEPKc@Base 6.0.0
 _ZN14KMessageDialog16setNotifyEnabledEb@Base 6.0.0
 _ZN14KMessageDialog16staticMetaObjectE@Base 6.0.0
 _ZN14KMessageDialog18setListWidgetItemsERK5QListI7QStringE@Base 6.0.0
 _ZN14KMessageDialog19setDontAskAgainTextERK7QString@Base 6.0.0
 _ZN14KMessageDialog20setOpenExternalLinksEb@Base 6.0.0
 _ZN14KMessageDialog22setDontAskAgainCheckedEb@Base 6.0.0
 _ZN14KMessageDialog4beepENS_4TypeERK7QStringP7QWidget@Base 6.0.0
 _ZN14KMessageDialog7setIconERK5QIcon@Base 6.0.0
 _ZN14KMessageDialog9showEventEP10QShowEvent@Base 6.0.0
 _ZN14KMessageDialogC1ENS_4TypeERK7QStringP7QWidget@Base 6.0.0
 (subst)_ZN14KMessageDialogC1ENS_4TypeERK7QString{quintptr}@Base 6.0.0
 _ZN14KMessageDialogC2ENS_4TypeERK7QStringP7QWidget@Base 6.0.0
 (subst)_ZN14KMessageDialogC2ENS_4TypeERK7QString{quintptr}@Base 6.0.0
 _ZN14KMessageDialogD0Ev@Base 6.0.0
 _ZN14KMessageDialogD1Ev@Base 6.0.0
 _ZN14KMessageDialogD2Ev@Base 6.0.0
 _ZN14KMessageWidget10paintEventEP11QPaintEvent@Base 6.0.0
 _ZN14KMessageWidget11linkHoveredERK7QString@Base 6.0.0
 _ZN14KMessageWidget11qt_metacallEN11QMetaObject4CallEiPPv@Base 6.0.0
 _ZN14KMessageWidget11qt_metacastEPKc@Base 6.0.0
 _ZN14KMessageWidget11resizeEventEP12QResizeEvent@Base 6.0.0
 _ZN14KMessageWidget11setPositionENS_8PositionE@Base 6.0.0
 _ZN14KMessageWidget11setWordWrapEb@Base 6.0.0
 _ZN14KMessageWidget12animatedHideEv@Base 6.0.0
 _ZN14KMessageWidget12animatedShowEv@Base 6.0.0
 _ZN14KMessageWidget12clearActionsEv@Base 6.0.0
 _ZN14KMessageWidget12removeActionEP7QAction@Base 6.0.0
 _ZN14KMessageWidget13linkActivatedERK7QString@Base 6.0.0
 _ZN14KMessageWidget13setTextFormatEN2Qt10TextFormatE@Base 6.0.0
 _ZN14KMessageWidget14setMessageTypeENS_11MessageTypeE@Base 6.0.0
 _ZN14KMessageWidget16staticMetaObjectE@Base 6.0.0
 _ZN14KMessageWidget21hideAnimationFinishedEv@Base 6.0.0
 _ZN14KMessageWidget21setCloseButtonVisibleEb@Base 6.0.0
 _ZN14KMessageWidget21showAnimationFinishedEv@Base 6.0.0
 _ZN14KMessageWidget5eventEP6QEvent@Base 6.0.0
 _ZN14KMessageWidget7setIconERK5QIcon@Base 6.0.0
 _ZN14KMessageWidget7setTextERK7QString@Base 6.0.0
 _ZN14KMessageWidget9addActionEP7QAction@Base 6.0.0
 _ZN14KMessageWidgetC1EP7QWidget@Base 6.0.0
 _ZN14KMessageWidgetC1ERK7QStringP7QWidget@Base 6.0.0
 _ZN14KMessageWidgetC2EP7QWidget@Base 6.0.0
 _ZN14KMessageWidgetC2ERK7QStringP7QWidget@Base 6.0.0
 _ZN14KMessageWidgetD0Ev@Base 6.0.0
 _ZN14KMessageWidgetD1Ev@Base 6.0.0
 _ZN14KMessageWidgetD2Ev@Base 6.0.0
 _ZN14KRatingPainter10setEnabledEb@Base 6.0.0
 _ZN14KRatingPainter10setSpacingEi@Base 6.0.0
 _ZN14KRatingPainter11paintRatingEP8QPainterRK5QRect6QFlagsIN2Qt13AlignmentFlagEEii@Base 6.0.0
 _ZN14KRatingPainter12setAlignmentE6QFlagsIN2Qt13AlignmentFlagEE@Base 6.0.0
 _ZN14KRatingPainter12setMaxRatingEi@Base 6.0.0
 _ZN14KRatingPainter15setCustomPixmapERK7QPixmap@Base 6.0.0
 _ZN14KRatingPainter18setLayoutDirectionEN2Qt15LayoutDirectionE@Base 6.0.0
 _ZN14KRatingPainter19setHalfStepsEnabledEb@Base 6.0.0
 _ZN14KRatingPainter21getRatingFromPositionERK5QRect6QFlagsIN2Qt13AlignmentFlagEENS4_15LayoutDirectionERK6QPoint@Base 6.0.0
 _ZN14KRatingPainter7setIconERK5QIcon@Base 6.0.0
 _ZN14KRatingPainterC1Ev@Base 6.0.0
 _ZN14KRatingPainterC2Ev@Base 6.0.0
 _ZN14KRatingPainterD1Ev@Base 6.0.0
 _ZN14KRatingPainterD2Ev@Base 6.0.0
 _ZN14KToolTipWidget10enterEventEP11QEnterEvent@Base 6.0.0
 _ZN14KToolTipWidget10leaveEventEP6QEvent@Base 6.0.0
 _ZN14KToolTipWidget10paintEventEP11QPaintEvent@Base 6.0.0
 _ZN14KToolTipWidget11qt_metacallEN11QMetaObject4CallEiPPv@Base 6.0.0
 _ZN14KToolTipWidget11qt_metacastEPKc@Base 6.0.0
 _ZN14KToolTipWidget12setHideDelayEi@Base 6.0.0
 _ZN14KToolTipWidget16staticMetaObjectE@Base 6.0.0
 _ZN14KToolTipWidget6hiddenEv@Base 6.0.0
 _ZN14KToolTipWidget6showAtERK6QPointP7QWidgetP7QWindow@Base 6.0.0
 _ZN14KToolTipWidget9hideEventEP10QHideEvent@Base 6.0.0
 _ZN14KToolTipWidget9hideLaterEv@Base 6.0.0
 _ZN14KToolTipWidget9showBelowERK5QRectP7QWidgetP7QWindow@Base 6.0.0
 _ZN14KToolTipWidgetC1EP7QWidget@Base 6.0.0
 _ZN14KToolTipWidgetC2EP7QWidget@Base 6.0.0
 _ZN14KToolTipWidgetD0Ev@Base 6.0.0
 _ZN14KToolTipWidgetD1Ev@Base 6.0.0
 _ZN14KToolTipWidgetD2Ev@Base 6.0.0
 _ZN15KActionSelector11eventFilterEP7QObjectP6QEvent@Base 6.0.0
 _ZN15KActionSelector11qt_metacallEN11QMetaObject4CallEiPPv@Base 6.0.0
 _ZN15KActionSelector11qt_metacastEPKc@Base 6.0.0
 _ZN15KActionSelector13keyPressEventEP9QKeyEvent@Base 6.0.0
 _ZN15KActionSelector13setButtonIconERK7QStringNS_10MoveButtonE@Base 6.0.0
 _ZN15KActionSelector16setButtonIconSetERK5QIconNS_10MoveButtonE@Base 6.0.0
 _ZN15KActionSelector16setButtonTooltipERK7QStringNS_10MoveButtonE@Base 6.0.0
 _ZN15KActionSelector16setSelectedLabelERK7QString@Base 6.0.0
 _ZN15KActionSelector16staticMetaObjectE@Base 6.0.0
 _ZN15KActionSelector17setAvailableLabelERK7QString@Base 6.0.0
 _ZN15KActionSelector17setButtonsEnabledEv@Base 6.0.0
 _ZN15KActionSelector18setButtonWhatsThisERK7QStringNS_10MoveButtonE@Base 6.0.0
 _ZN15KActionSelector18setKeyboardEnabledEb@Base 6.0.0
 _ZN15KActionSelector20setMoveOnDoubleClickEb@Base 6.0.0
 _ZN15KActionSelector20setShowUpDownButtonsEb@Base 6.0.0
 _ZN15KActionSelector26setSelectedInsertionPolicyENS_15InsertionPolicyE@Base 6.0.0
 _ZN15KActionSelector27setAvailableInsertionPolicyENS_15InsertionPolicyE@Base 6.0.0
 _ZN15KActionSelector5addedEP15QListWidgetItem@Base 6.0.0
 _ZN15KActionSelector7movedUpEP15QListWidgetItem@Base 6.0.0
 _ZN15KActionSelector7removedEP15QListWidgetItem@Base 6.0.0
 _ZN15KActionSelector9movedDownEP15QListWidgetItem@Base 6.0.0
 _ZN15KActionSelectorC1EP7QWidget@Base 6.0.0
 _ZN15KActionSelectorC2EP7QWidget@Base 6.0.0
 _ZN15KActionSelectorD0Ev@Base 6.0.0
 _ZN15KActionSelectorD1Ev@Base 6.0.0
 _ZN15KActionSelectorD2Ev@Base 6.0.0
 _ZN15KAnimatedButton11qt_metacallEN11QMetaObject4CallEiPPv@Base 6.0.0
 _ZN15KAnimatedButton11qt_metacastEPKc@Base 6.0.0
 _ZN15KAnimatedButton16setAnimationPathERK7QString@Base 6.0.0
 _ZN15KAnimatedButton16staticMetaObjectE@Base 6.0.0
 _ZN15KAnimatedButton4stopEv@Base 6.0.0
 _ZN15KAnimatedButton5startEv@Base 6.0.0
 _ZN15KAnimatedButtonC1EP7QWidget@Base 6.0.0
 _ZN15KAnimatedButtonC2EP7QWidget@Base 6.0.0
 _ZN15KAnimatedButtonD0Ev@Base 6.0.0
 _ZN15KAnimatedButtonD1Ev@Base 6.0.0
 _ZN15KAnimatedButtonD2Ev@Base 6.0.0
 _ZN15KEditListWidget10insertItemERK7QStringi@Base 6.0.0
 _ZN15KEditListWidget10setButtonsE6QFlagsINS_6ButtonEE@Base 6.0.0
 _ZN15KEditListWidget11eventFilterEP7QObjectP6QEvent@Base 6.0.0
 _ZN15KEditListWidget11qt_metacallEN11QMetaObject4CallEiPPv@Base 6.0.0
 _ZN15KEditListWidget11qt_metacastEPKc@Base 6.0.0
 _ZN15KEditListWidget12CustomEditor11setLineEditEP9QLineEdit@Base 6.0.0
 _ZN15KEditListWidget12CustomEditor23setRepresentationWidgetEP7QWidget@Base 6.0.0
 _ZN15KEditListWidget12CustomEditorC1EP7QWidgetP9QLineEdit@Base 6.0.0
 _ZN15KEditListWidget12CustomEditorC1EP9QComboBox@Base 6.0.0
 _ZN15KEditListWidget12CustomEditorC1Ev@Base 6.0.0
 _ZN15KEditListWidget12CustomEditorC2EP7QWidgetP9QLineEdit@Base 6.0.0
 _ZN15KEditListWidget12CustomEditorC2EP9QComboBox@Base 6.0.0
 _ZN15KEditListWidget12CustomEditorC2Ev@Base 6.0.0
 _ZN15KEditListWidget12CustomEditorD0Ev@Base 6.0.0
 _ZN15KEditListWidget12CustomEditorD1Ev@Base 6.0.0
 _ZN15KEditListWidget12CustomEditorD2Ev@Base 6.0.0
 _ZN15KEditListWidget15checkAtEnteringEv@Base 6.0.0
 _ZN15KEditListWidget15setCustomEditorERKNS_12CustomEditorE@Base 6.0.0
 _ZN15KEditListWidget16insertStringListERK5QListI7QStringEi@Base 6.0.0
 _ZN15KEditListWidget16staticMetaObjectE@Base 6.0.0
 _ZN15KEditListWidget18setCheckAtEnteringEb@Base 6.0.0
 _ZN15KEditListWidget5addedERK7QString@Base 6.0.0
 _ZN15KEditListWidget5clearEv@Base 6.0.0
 _ZN15KEditListWidget7changedEv@Base 6.0.0
 _ZN15KEditListWidget7removedERK7QString@Base 6.0.0
 _ZN15KEditListWidget8setItemsERK5QListI7QStringE@Base 6.0.0
 _ZN15KEditListWidgetC1EP7QWidget@Base 6.0.0
 _ZN15KEditListWidgetC1ERKNS_12CustomEditorEP7QWidgetb6QFlagsINS_6ButtonEE@Base 6.0.0
 _ZN15KEditListWidgetC2EP7QWidget@Base 6.0.0
 _ZN15KEditListWidgetC2ERKNS_12CustomEditorEP7QWidgetb6QFlagsINS_6ButtonEE@Base 6.0.0
 _ZN15KEditListWidgetD0Ev@Base 6.0.0
 _ZN15KEditListWidgetD1Ev@Base 6.0.0
 _ZN15KEditListWidgetD2Ev@Base 6.0.0
 _ZN15KFontSizeAction11qt_metacallEN11QMetaObject4CallEiPPv@Base 6.0.0
 _ZN15KFontSizeAction11qt_metacastEPKc@Base 6.0.0
 _ZN15KFontSizeAction11setFontSizeEi@Base 6.0.0
 _ZN15KFontSizeAction15fontSizeChangedEi@Base 6.0.0
 _ZN15KFontSizeAction16staticMetaObjectE@Base 6.0.0
 _ZN15KFontSizeAction19slotActionTriggeredEP7QAction@Base 6.0.0
 _ZN15KFontSizeActionC1EP7QObject@Base 6.0.0
 _ZN15KFontSizeActionC1ERK5QIconRK7QStringP7QObject@Base 6.0.0
 _ZN15KFontSizeActionC1ERK7QStringP7QObject@Base 6.0.0
 _ZN15KFontSizeActionC2EP7QObject@Base 6.0.0
 _ZN15KFontSizeActionC2ERK5QIconRK7QStringP7QObject@Base 6.0.0
 _ZN15KFontSizeActionC2ERK7QStringP7QObject@Base 6.0.0
 _ZN15KFontSizeActionD0Ev@Base 6.0.0
 _ZN15KFontSizeActionD1Ev@Base 6.0.0
 _ZN15KFontSizeActionD2Ev@Base 6.0.0
 _ZN15KMimeTypeEditor12editMimeTypeERK7QStringP7QWidget@Base 6.0.0
 _ZN15KMultiTabBarTab10paintEventEP11QPaintEvent@Base 6.0.0
 _ZN15KMultiTabBarTab11qt_metacallEN11QMetaObject4CallEiPPv@Base 6.0.0
 _ZN15KMultiTabBarTab11qt_metacastEPKc@Base 6.0.0
 _ZN15KMultiTabBarTab11setPositionEN12KMultiTabBar20KMultiTabBarPositionE@Base 6.0.0
 _ZN15KMultiTabBarTab16staticMetaObjectE@Base 6.0.0
 _ZN15KMultiTabBarTab8setStateEb@Base 6.0.0
 _ZN15KMultiTabBarTab8setStyleEN12KMultiTabBar17KMultiTabBarStyleE@Base 6.0.0
 _ZN15KMultiTabBarTabD0Ev@Base 6.0.0
 _ZN15KMultiTabBarTabD1Ev@Base 6.0.0
 _ZN15KMultiTabBarTabD2Ev@Base 6.0.0
 _ZN15KPageWidgetItem10setCheckedEb@Base 6.0.0
 _ZN15KPageWidgetItem10setEnabledEb@Base 6.0.0
 _ZN15KPageWidgetItem11qt_metacallEN11QMetaObject4CallEiPPv@Base 6.0.0
 _ZN15KPageWidgetItem11qt_metacastEPKc@Base 6.0.0
 _ZN15KPageWidgetItem12setCheckableEb@Base 6.0.0
 _ZN15KPageWidgetItem16setHeaderVisibleEb@Base 6.0.0
 _ZN15KPageWidgetItem16staticMetaObjectE@Base 6.0.0
 _ZN15KPageWidgetItem7changedEv@Base 6.0.0
 _ZN15KPageWidgetItem7setIconERK5QIcon@Base 6.0.0
 _ZN15KPageWidgetItem7setNameERK7QString@Base 6.0.0
 _ZN15KPageWidgetItem7toggledEb@Base 6.0.0
 _ZN15KPageWidgetItem9setHeaderERK7QString@Base 6.0.0
 _ZN15KPageWidgetItemC1EP7QWidget@Base 6.0.0
 _ZN15KPageWidgetItemC1EP7QWidgetRK7QString@Base 6.0.0
 _ZN15KPageWidgetItemC2EP7QWidget@Base 6.0.0
 _ZN15KPageWidgetItemC2EP7QWidgetRK7QString@Base 6.0.0
 _ZN15KPageWidgetItemD0Ev@Base 6.0.0
 _ZN15KPageWidgetItemD1Ev@Base 6.0.0
 _ZN15KPageWidgetItemD2Ev@Base 6.0.0
 _ZN15KPasswordDialog11gotPasswordERK7QStringb@Base 6.0.0
 _ZN15KPasswordDialog11qt_metacallEN11QMetaObject4CallEiPPv@Base 6.0.0
 _ZN15KPasswordDialog11qt_metacastEPKc@Base 6.0.0
 _ZN15KPasswordDialog11setPasswordERK7QString@Base 6.0.0
 _ZN15KPasswordDialog11setUsernameERK7QString@Base 6.0.0
 _ZN15KPasswordDialog13checkPasswordEv@Base 6.0.0
 _ZN15KPasswordDialog14addCommentLineERK7QStringS2_@Base 6.0.0
 _ZN15KPasswordDialog14setKnownLoginsERK4QMapI7QStringS1_E@Base 6.0.0
 _ZN15KPasswordDialog15setKeepPasswordEb@Base 6.0.0
 _ZN15KPasswordDialog16setAnonymousModeEb@Base 6.0.0
 _ZN15KPasswordDialog16showErrorMessageERK7QStringNS_9ErrorTypeE@Base 6.0.0
 _ZN15KPasswordDialog16staticMetaObjectE@Base 6.0.0
 _ZN15KPasswordDialog19setUsernameReadOnlyEb@Base 6.0.0
 _ZN15KPasswordDialog21setRevealPasswordModeEN9KPassword10RevealModeE@Base 6.0.0
 _ZN15KPasswordDialog22gotUsernameAndPasswordERK7QStringS2_b@Base 6.0.0
 _ZN15KPasswordDialog22setUsernameContextHelpERK7QString@Base 6.0.0
 _ZN15KPasswordDialog26setRevealPasswordAvailableEb@Base 6.0.0
 _ZN15KPasswordDialog6acceptEv@Base 6.0.0
 _ZN15KPasswordDialog7setIconERK5QIcon@Base 6.0.0
 _ZN15KPasswordDialog9setDomainERK7QString@Base 6.0.0
 _ZN15KPasswordDialog9setPromptERK7QString@Base 6.0.0
 _ZN15KPasswordDialogC1EP7QWidgetRK6QFlagsINS_19KPasswordDialogFlagEE@Base 6.0.0
 _ZN15KPasswordDialogC2EP7QWidgetRK6QFlagsINS_19KPasswordDialogFlagEE@Base 6.0.0
 _ZN15KPasswordDialogD0Ev@Base 6.0.0
 _ZN15KPasswordDialogD1Ev@Base 6.0.0
 _ZN15KPasswordDialogD2Ev@Base 6.0.0
 _ZN15KPixmapSequenceC1ERK7QPixmapRK5QSize@Base 6.0.0
 _ZN15KPixmapSequenceC1ERK7QStringi@Base 6.0.0
 _ZN15KPixmapSequenceC1ERKS_@Base 6.0.0
 _ZN15KPixmapSequenceC1Ev@Base 6.0.0
 _ZN15KPixmapSequenceC2ERK7QPixmapRK5QSize@Base 6.0.0
 _ZN15KPixmapSequenceC2ERK7QStringi@Base 6.0.0
 _ZN15KPixmapSequenceC2ERKS_@Base 6.0.0
 _ZN15KPixmapSequenceC2Ev@Base 6.0.0
 _ZN15KPixmapSequenceD1Ev@Base 6.0.0
 _ZN15KPixmapSequenceD2Ev@Base 6.0.0
 _ZN15KPixmapSequenceaSERKS_@Base 6.0.0
 _ZN15KTwoFingerSwipe11qt_metacallEN11QMetaObject4CallEiPPv@Base 6.0.0
 _ZN15KTwoFingerSwipe11qt_metacastEPKc@Base 6.0.0
 _ZN15KTwoFingerSwipe11setScenePosE7QPointF@Base 6.0.0
 _ZN15KTwoFingerSwipe12setScreenPosE7QPointF@Base 6.0.0
 _ZN15KTwoFingerSwipe13setSwipeAngleEd@Base 6.0.0
 _ZN15KTwoFingerSwipe16staticMetaObjectE@Base 6.0.0
 _ZN15KTwoFingerSwipe6setPosE7QPointF@Base 6.0.0
 _ZN15KTwoFingerSwipeC1EP7QObject@Base 6.0.0
 _ZN15KTwoFingerSwipeC2EP7QObject@Base 6.0.0
 _ZN15KTwoFingerSwipeD0Ev@Base 6.0.0
 _ZN15KTwoFingerSwipeD1Ev@Base 6.0.0
 _ZN15KTwoFingerSwipeD2Ev@Base 6.0.0
 _ZN16KAssistantDialog11qt_metacallEN11QMetaObject4CallEiPPv@Base 6.0.0
 _ZN16KAssistantDialog11qt_metacastEPKc@Base 6.0.0
 _ZN16KAssistantDialog14setAppropriateEP15KPageWidgetItemb@Base 6.0.0
 _ZN16KAssistantDialog16staticMetaObjectE@Base 6.0.0
 _ZN16KAssistantDialog4backEv@Base 6.0.0
 _ZN16KAssistantDialog4nextEv@Base 6.0.0
 _ZN16KAssistantDialog8setValidEP15KPageWidgetItemb@Base 6.0.0
 _ZN16KAssistantDialog9showEventEP10QShowEvent@Base 6.0.0
 _ZN16KAssistantDialogC1EP11KPageWidgetP7QWidget6QFlagsIN2Qt10WindowTypeEE@Base 6.0.0
 _ZN16KAssistantDialogC1EP7QWidget6QFlagsIN2Qt10WindowTypeEE@Base 6.0.0
 _ZN16KAssistantDialogC2EP11KPageWidgetP7QWidget6QFlagsIN2Qt10WindowTypeEE@Base 6.0.0
 _ZN16KAssistantDialogC2EP7QWidget6QFlagsIN2Qt10WindowTypeEE@Base 6.0.0
 _ZN16KAssistantDialogD0Ev@Base 6.0.0
 _ZN16KAssistantDialogD1Ev@Base 6.0.0
 _ZN16KAssistantDialogD2Ev@Base 6.0.0
 _ZN16KDatePickerPopup10setDateMapERK4QMapI5QDate7QStringE@Base 6.0.0
 _ZN16KDatePickerPopup11dateChangedERK5QDate@Base 6.0.0
 _ZN16KDatePickerPopup11qt_metacallEN11QMetaObject4CallEiPPv@Base 6.0.0
 _ZN16KDatePickerPopup11qt_metacastEPKc@Base 6.0.0
 _ZN16KDatePickerPopup12setDateRangeERK5QDateS2_@Base 6.0.0
 _ZN16KDatePickerPopup16staticMetaObjectE@Base 6.0.0
 _ZN16KDatePickerPopup7setDateE5QDate@Base 6.0.0
 _ZN16KDatePickerPopup8setModesE6QFlagsINS_4ModeEE@Base 6.0.0
 _ZN16KDatePickerPopupC1E6QFlagsINS_4ModeEE5QDateP7QWidget@Base 6.0.0
 _ZN16KDatePickerPopupC2E6QFlagsINS_4ModeEE5QDateP7QWidget@Base 6.0.0
 _ZN16KDatePickerPopupD0Ev@Base 6.0.0
 _ZN16KDatePickerPopupD1Ev@Base 6.0.0
 _ZN16KDatePickerPopupD2Ev@Base 6.0.0
 _ZN16KMimeTypeChooser11qt_metacallEN11QMetaObject4CallEiPPv@Base 6.0.0
 _ZN16KMimeTypeChooser11qt_metacastEPKc@Base 6.0.0
 _ZN16KMimeTypeChooser16staticMetaObjectE@Base 6.0.0
 _ZN16KMimeTypeChooserC1ERK7QStringRK5QListIS0_ES2_S6_iP7QWidget@Base 6.0.0
 _ZN16KMimeTypeChooserC2ERK7QStringRK5QListIS0_ES2_S6_iP7QWidget@Base 6.0.0
 _ZN16KMimeTypeChooserD0Ev@Base 6.0.0
 _ZN16KMimeTypeChooserD1Ev@Base 6.0.0
 _ZN16KMimeTypeChooserD2Ev@Base 6.0.0
 _ZN16KPageWidgetModel10addSubPageEP15KPageWidgetItemP7QWidgetRK7QString@Base 6.0.0
 _ZN16KPageWidgetModel10addSubPageEP15KPageWidgetItemS1_@Base 6.0.0
 _ZN16KPageWidgetModel10insertPageEP15KPageWidgetItemP7QWidgetRK7QString@Base 6.0.0
 _ZN16KPageWidgetModel10insertPageEP15KPageWidgetItemS1_@Base 6.0.0
 _ZN16KPageWidgetModel10removePageEP15KPageWidgetItem@Base 6.0.0
 _ZN16KPageWidgetModel11qt_metacallEN11QMetaObject4CallEiPPv@Base 6.0.0
 _ZN16KPageWidgetModel11qt_metacastEPKc@Base 6.0.0
 _ZN16KPageWidgetModel16staticMetaObjectE@Base 6.0.0
 _ZN16KPageWidgetModel7addPageEP15KPageWidgetItem@Base 6.0.0
 _ZN16KPageWidgetModel7addPageEP7QWidgetRK7QString@Base 6.0.0
 _ZN16KPageWidgetModel7setDataERK11QModelIndexRK8QVarianti@Base 6.0.0
 _ZN16KPageWidgetModel7toggledEP15KPageWidgetItemb@Base 6.0.0
 _ZN16KPageWidgetModelC1EP7QObject@Base 6.0.0
 _ZN16KPageWidgetModelC2EP7QObject@Base 6.0.0
 _ZN16KPageWidgetModelD0Ev@Base 6.0.0
 _ZN16KPageWidgetModelD1Ev@Base 6.0.0
 _ZN16KPageWidgetModelD2Ev@Base 6.0.0
 _ZN16KRecentFilesMenu11qt_metacallEN11QMetaObject4CallEiPPv@Base 6.0.0
 _ZN16KRecentFilesMenu11qt_metacastEPKc@Base 6.0.0
 _ZN16KRecentFilesMenu12urlTriggeredERK4QUrl@Base 6.0.0
 (subst)_ZN16KRecentFilesMenu15setMaximumItemsE{size_t}@Base 6.0.0
 _ZN16KRecentFilesMenu16clearRecentFilesEv@Base 6.0.0
 _ZN16KRecentFilesMenu16staticMetaObjectE@Base 6.0.0
 _ZN16KRecentFilesMenu18recentFilesChangedEv@Base 6.0.0
 _ZN16KRecentFilesMenu6addUrlERK4QUrlRK7QString@Base 6.0.0
 _ZN16KRecentFilesMenu8setGroupERK7QString@Base 6.0.0
 _ZN16KRecentFilesMenu9removeUrlERK4QUrl@Base 6.0.0
 _ZN16KRecentFilesMenuC1EP7QWidget@Base 6.0.0
 _ZN16KRecentFilesMenuC1ERK7QStringP7QWidget@Base 6.0.0
 _ZN16KRecentFilesMenuC2EP7QWidget@Base 6.0.0
 _ZN16KRecentFilesMenuC2ERK7QStringP7QWidget@Base 6.0.0
 _ZN16KRecentFilesMenuD0Ev@Base 6.0.0
 _ZN16KRecentFilesMenuD1Ev@Base 6.0.0
 _ZN16KRecentFilesMenuD2Ev@Base 6.0.0
 _ZN16KStandardGuiItem10propertiesEv@Base 6.0.0
 _ZN16KStandardGuiItem11closeWindowEv@Base 6.0.0
 _ZN16KStandardGuiItem12standardItemENS_12StandardItemE@Base 6.0.0
 _ZN16KStandardGuiItem13closeDocumentEv@Base 6.0.0
 _ZN16KStandardGuiItem14backAndForwardEv@Base 6.0.0
 _ZN16KStandardGuiItem2okEv@Base 6.0.0
 _ZN16KStandardGuiItem3addEv@Base 6.0.0
 _ZN16KStandardGuiItem3delEv@Base 6.0.0
 _ZN16KStandardGuiItem4backENS_8BidiModeE@Base 6.0.0
 _ZN16KStandardGuiItem4contEv@Base 6.0.0
 _ZN16KStandardGuiItem4findEv@Base 6.0.0
 _ZN16KStandardGuiItem4helpEv@Base 6.0.0
 _ZN16KStandardGuiItem4openEv@Base 6.0.0
 _ZN16KStandardGuiItem4quitEv@Base 6.0.0
 _ZN16KStandardGuiItem4saveEv@Base 6.0.0
 _ZN16KStandardGuiItem4stopEv@Base 6.0.0
 _ZN16KStandardGuiItem4testEv@Base 6.0.0
 _ZN16KStandardGuiItem5applyEv@Base 6.0.0
 _ZN16KStandardGuiItem5clearEv@Base 6.0.0
 _ZN16KStandardGuiItem5closeEv@Base 6.0.0
 _ZN16KStandardGuiItem5printEv@Base 6.0.0
 _ZN16KStandardGuiItem5resetEv@Base 6.0.0
 _ZN16KStandardGuiItem6assignEP11QPushButtonNS_12StandardItemE@Base 6.0.0
 _ZN16KStandardGuiItem6cancelEv@Base 6.0.0
 _ZN16KStandardGuiItem6insertEv@Base 6.0.0
 _ZN16KStandardGuiItem6removeEv@Base 6.0.0
 _ZN16KStandardGuiItem6saveAsEv@Base 6.0.0
 _ZN16KStandardGuiItem7discardEv@Base 6.0.0
 _ZN16KStandardGuiItem7forwardENS_8BidiModeE@Base 6.0.0
 _ZN16KStandardGuiItem7guiItemENS_12StandardItemE@Base 6.0.0
 _ZN16KStandardGuiItem8defaultsEv@Base 6.0.0
 _ZN16KStandardGuiItem8dontSaveEv@Base 6.0.0
 _ZN16KStandardGuiItem9adminModeEv@Base 6.0.0
 _ZN16KStandardGuiItem9configureEv@Base 6.0.0
 _ZN16KStandardGuiItem9overwriteEv@Base 6.0.0
 _ZN16KStyleExtensions15customStyleHintERK7QStringPK7QWidget@Base 6.0.0
 _ZN16KStyleExtensions16customSubElementERK7QStringPK7QWidget@Base 6.0.0
 _ZN16KStyleExtensions20customControlElementERK7QStringPK7QWidget@Base 6.0.0
 _ZN16QMetaAssociation15MetaAssociationI4QMapI5QDate7QStringEE5valueE@Base 6.0.0
 _ZN17KGradientSelector11qt_metacallEN11QMetaObject4CallEiPPv@Base 6.0.0
 _ZN17KGradientSelector11qt_metacastEPKc@Base 6.0.0
 _ZN17KGradientSelector12drawContentsEP8QPainter@Base 6.0.0
 _ZN17KGradientSelector12setFirstTextERK7QString@Base 6.0.0
 _ZN17KGradientSelector13setFirstColorERK6QColor@Base 6.0.0
 _ZN17KGradientSelector13setSecondTextERK7QString@Base 6.0.0
 _ZN17KGradientSelector14setSecondColorERK6QColor@Base 6.0.0
 _ZN17KGradientSelector16staticMetaObjectE@Base 6.0.0
 _ZN17KGradientSelector7setTextERK7QStringS2_@Base 6.0.0
 _ZN17KGradientSelector8setStopsERK5QListISt4pairId6QColorEE@Base 6.0.0
 _ZN17KGradientSelector9setColorsERK6QColorS2_@Base 6.0.0
 _ZN17KGradientSelectorC1EN2Qt11OrientationEP7QWidget@Base 6.0.0
 _ZN17KGradientSelectorC1EP7QWidget@Base 6.0.0
 _ZN17KGradientSelectorC2EN2Qt11OrientationEP7QWidget@Base 6.0.0
 _ZN17KGradientSelectorC2EP7QWidget@Base 6.0.0
 _ZN17KGradientSelectorD0Ev@Base 6.0.0
 _ZN17KGradientSelectorD1Ev@Base 6.0.0
 _ZN17KGradientSelectorD2Ev@Base 6.0.0
 _ZN17KPasswordLineEdit11qt_metacallEN11QMetaObject4CallEiPPv@Base 6.0.0
 _ZN17KPasswordLineEdit11qt_metacastEPKc@Base 6.0.0
 _ZN17KPasswordLineEdit11setEchoModeEN9QLineEdit8EchoModeE@Base 6.0.0
 _ZN17KPasswordLineEdit11setPasswordERK7QString@Base 6.0.0
 _ZN17KPasswordLineEdit11setReadOnlyEb@Base 6.0.0
 _ZN17KPasswordLineEdit15echoModeChangedEN9QLineEdit8EchoModeE@Base 6.0.0
 _ZN17KPasswordLineEdit15passwordChangedERK7QString@Base 6.0.0
 _ZN17KPasswordLineEdit16staticMetaObjectE@Base 6.0.0
 _ZN17KPasswordLineEdit21setClearButtonEnabledEb@Base 6.0.0
 _ZN17KPasswordLineEdit21setRevealPasswordModeEN9KPassword10RevealModeE@Base 6.0.0
 _ZN17KPasswordLineEdit26setRevealPasswordAvailableEb@Base 6.0.0
 _ZN17KPasswordLineEdit5clearEv@Base 6.0.0
 _ZN17KPasswordLineEditC1EP7QWidget@Base 6.0.0
 _ZN17KPasswordLineEditC2EP7QWidget@Base 6.0.0
 _ZN17KPasswordLineEditD0Ev@Base 6.0.0
 _ZN17KPasswordLineEditD1Ev@Base 6.0.0
 _ZN17KPasswordLineEditD2Ev@Base 6.0.0
 _ZN18KFontChooserDialog11getFontDiffER5QFontR6QFlagsIN12KFontChooser8FontDiffEERKS2_INS3_11DisplayFlagEEP7QWidget@Base 6.0.0
 _ZN18KFontChooserDialog11qt_metacallEN11QMetaObject4CallEiPPv@Base 6.0.0
 _ZN18KFontChooserDialog11qt_metacastEPKc@Base 6.0.0
 _ZN18KFontChooserDialog12fontSelectedERK5QFont@Base 6.0.0
 _ZN18KFontChooserDialog16staticMetaObjectE@Base 6.0.0
 _ZN18KFontChooserDialog7getFontER5QFontRK6QFlagsIN12KFontChooser11DisplayFlagEEP7QWidget@Base 6.0.0
 _ZN18KFontChooserDialog7setFontERK5QFontb@Base 6.0.0
 _ZN18KFontChooserDialogC1ERK6QFlagsIN12KFontChooser11DisplayFlagEEP7QWidget@Base 6.0.0
 _ZN18KFontChooserDialogC2ERK6QFlagsIN12KFontChooser11DisplayFlagEEP7QWidget@Base 6.0.0
 _ZN18KFontChooserDialogD0Ev@Base 6.0.0
 _ZN18KFontChooserDialogD1Ev@Base 6.0.0
 _ZN18KFontChooserDialogD2Ev@Base 6.0.0
 _ZN18KMultiTabBarButton10paintEventEP11QPaintEvent@Base 6.0.0
 _ZN18KMultiTabBarButton11qt_metacallEN11QMetaObject4CallEiPPv@Base 6.0.0
 _ZN18KMultiTabBarButton11qt_metacastEPKc@Base 6.0.0
 _ZN18KMultiTabBarButton11slotClickedEv@Base 6.0.0
 _ZN18KMultiTabBarButton16staticMetaObjectE@Base 6.0.0
 _ZN18KMultiTabBarButton7clickedEi@Base 6.0.0
 _ZN18KMultiTabBarButton7setTextERK7QString@Base 6.0.0
 _ZN18KMultiTabBarButton9hideEventEP10QHideEvent@Base 6.0.0
 _ZN18KMultiTabBarButton9showEventEP10QShowEvent@Base 6.0.0
 _ZN18KMultiTabBarButtonC1ERK5QIconRK7QStringiP7QWidget@Base 6.0.0
 _ZN18KMultiTabBarButtonC2ERK5QIconRK7QStringiP7QWidget@Base 6.0.0
 _ZN18KMultiTabBarButtonD0Ev@Base 6.0.0
 _ZN18KMultiTabBarButtonD1Ev@Base 6.0.0
 _ZN18KMultiTabBarButtonD2Ev@Base 6.0.0
 _ZN18KNewPasswordDialog11newPasswordERK7QString@Base 6.0.0
 _ZN18KNewPasswordDialog11qt_metacallEN11QMetaObject4CallEiPPv@Base 6.0.0
 _ZN18KNewPasswordDialog11qt_metacastEPKc@Base 6.0.0
 _ZN18KNewPasswordDialog13checkPasswordERK7QString@Base 6.0.0
 _ZN18KNewPasswordDialog16staticMetaObjectE@Base 6.0.0
 _ZN18KNewPasswordDialog19checkAndGetPasswordEP7QString@Base 6.0.0
 _ZN18KNewPasswordDialog21setRevealPasswordModeEN9KPassword10RevealModeE@Base 6.0.0
 _ZN18KNewPasswordDialog22setAllowEmptyPasswordsEb@Base 6.0.0
 _ZN18KNewPasswordDialog24setMaximumPasswordLengthEi@Base 6.0.0
 _ZN18KNewPasswordDialog24setMinimumPasswordLengthEi@Base 6.0.0
 _ZN18KNewPasswordDialog25setBackgroundWarningColorERK6QColor@Base 6.0.0
 _ZN18KNewPasswordDialog26setRevealPasswordAvailableEb@Base 6.0.0
 _ZN18KNewPasswordDialog27setReasonablePasswordLengthEi@Base 6.0.0
 _ZN18KNewPasswordDialog31setPasswordStrengthWarningLevelEi@Base 6.0.0
 _ZN18KNewPasswordDialog6acceptEv@Base 6.0.0
 _ZN18KNewPasswordDialog7setIconERK5QIcon@Base 6.0.0
 _ZN18KNewPasswordDialog9setPromptERK7QString@Base 6.0.0
 _ZN18KNewPasswordDialogC1EP7QWidget@Base 6.0.0
 _ZN18KNewPasswordDialogC2EP7QWidget@Base 6.0.0
 _ZN18KNewPasswordDialogD0Ev@Base 6.0.0
 _ZN18KNewPasswordDialogD1Ev@Base 6.0.0
 _ZN18KNewPasswordDialogD2Ev@Base 6.0.0
 _ZN18KNewPasswordWidget11qt_metacallEN11QMetaObject4CallEiPPv@Base 6.0.0
 _ZN18KNewPasswordWidget11qt_metacastEPKc@Base 6.0.0
 _ZN18KNewPasswordWidget16staticMetaObjectE@Base 6.0.0
 _ZN18KNewPasswordWidget21passwordStatusChangedEv@Base 6.0.0
 _ZN18KNewPasswordWidget21setRevealPasswordModeEN9KPassword10RevealModeE@Base 6.0.0
 _ZN18KNewPasswordWidget22setAllowEmptyPasswordsEb@Base 6.0.0
 _ZN18KNewPasswordWidget24setMaximumPasswordLengthEi@Base 6.0.0
 _ZN18KNewPasswordWidget24setMinimumPasswordLengthEi@Base 6.0.0
 _ZN18KNewPasswordWidget25setBackgroundWarningColorERK6QColor@Base 6.0.0
 _ZN18KNewPasswordWidget26setRevealPasswordAvailableEb@Base 6.0.0
 _ZN18KNewPasswordWidget27setReasonablePasswordLengthEi@Base 6.0.0
 _ZN18KNewPasswordWidget31setPasswordStrengthMeterVisibleEb@Base 6.0.0
 _ZN18KNewPasswordWidget31setPasswordStrengthWarningLevelEi@Base 6.0.0
 _ZN18KNewPasswordWidgetC1EP7QWidget@Base 6.0.0
 _ZN18KNewPasswordWidgetC2EP7QWidget@Base 6.0.0
 _ZN18KNewPasswordWidgetD0Ev@Base 6.0.0
 _ZN18KNewPasswordWidgetD1Ev@Base 6.0.0
 _ZN18KNewPasswordWidgetD2Ev@Base 6.0.0
 _ZN18KSqueezedTextLabel11qt_metacallEN11QMetaObject4CallEiPPv@Base 6.0.0
 _ZN18KSqueezedTextLabel11qt_metacastEPKc@Base 6.0.0
 _ZN18KSqueezedTextLabel11resizeEventEP12QResizeEvent@Base 6.0.0
 _ZN18KSqueezedTextLabel12setAlignmentE6QFlagsIN2Qt13AlignmentFlagEE@Base 6.0.0
 _ZN18KSqueezedTextLabel16contextMenuEventEP17QContextMenuEvent@Base 6.0.0
 _ZN18KSqueezedTextLabel16setTextElideModeEN2Qt13TextElideModeE@Base 6.0.0
 _ZN18KSqueezedTextLabel16staticMetaObjectE@Base 6.0.0
 _ZN18KSqueezedTextLabel17mouseReleaseEventEP11QMouseEvent@Base 6.0.0
 _ZN18KSqueezedTextLabel18squeezeTextToLabelEv@Base 6.0.0
 _ZN18KSqueezedTextLabel5clearEv@Base 6.0.0
 _ZN18KSqueezedTextLabel7setTextERK7QString@Base 6.0.0
 _ZN18KSqueezedTextLabel9setIndentEi@Base 6.0.0
 _ZN18KSqueezedTextLabel9setMarginEi@Base 6.0.0
 _ZN18KSqueezedTextLabelC1EP7QWidget@Base 6.0.0
 _ZN18KSqueezedTextLabelC1ERK7QStringP7QWidget@Base 6.0.0
 _ZN18KSqueezedTextLabelC2EP7QWidget@Base 6.0.0
 _ZN18KSqueezedTextLabelC2ERK7QStringP7QWidget@Base 6.0.0
 _ZN18KSqueezedTextLabelD0Ev@Base 6.0.0
 _ZN18KSqueezedTextLabelD1Ev@Base 6.0.0
 _ZN18KSqueezedTextLabelD2Ev@Base 6.0.0
 _ZN19KAcceleratorManager10setNoAccelEP7QWidget@Base 6.0.0
 _ZN19KAcceleratorManager11last_manageER7QStringS1_S1_@Base 6.0.0
 _ZN19KAcceleratorManager22addStandardActionNamesERK5QListI7QStringE@Base 6.0.0
 _ZN19KAcceleratorManager6manageEP7QWidgetb@Base 6.0.0
 _ZN19KToolBarLabelAction11eventFilterEP7QObjectP6QEvent@Base 6.0.0
 _ZN19KToolBarLabelAction11qt_metacallEN11QMetaObject4CallEiPPv@Base 6.0.0
 _ZN19KToolBarLabelAction11qt_metacastEPKc@Base 6.0.0
 _ZN19KToolBarLabelAction11textChangedERK7QString@Base 6.0.0
 _ZN19KToolBarLabelAction12createWidgetEP7QWidget@Base 6.0.0
 _ZN19KToolBarLabelAction16staticMetaObjectE@Base 6.0.0
 _ZN19KToolBarLabelAction5eventEP6QEvent@Base 6.0.0
 _ZN19KToolBarLabelAction8setBuddyEP7QAction@Base 6.0.0
 _ZN19KToolBarLabelActionC1EP7QActionRK7QStringP7QObject@Base 6.0.0
 _ZN19KToolBarLabelActionC1ERK7QStringP7QObject@Base 6.0.0
 _ZN19KToolBarLabelActionC2EP7QActionRK7QStringP7QObject@Base 6.0.0
 _ZN19KToolBarLabelActionC2ERK7QStringP7QObject@Base 6.0.0
 _ZN19KToolBarLabelActionD0Ev@Base 6.0.0
 _ZN19KToolBarLabelActionD1Ev@Base 6.0.0
 _ZN19KToolBarLabelActionD2Ev@Base 6.0.0
 _ZN19KToolBarPopupAction11qt_metacallEN11QMetaObject4CallEiPPv@Base 6.0.0
 _ZN19KToolBarPopupAction11qt_metacastEPKc@Base 6.0.0
 _ZN19KToolBarPopupAction12createWidgetEP7QWidget@Base 6.0.0
 _ZN19KToolBarPopupAction12setPopupModeENS_9PopupModeE@Base 6.0.0
 _ZN19KToolBarPopupAction16staticMetaObjectE@Base 6.0.0
 _ZN19KToolBarPopupActionC1ERK5QIconRK7QStringP7QObject@Base 6.0.0
 _ZN19KToolBarPopupActionC2ERK5QIconRK7QStringP7QObject@Base 6.0.0
 _ZN19KToolBarPopupActionD0Ev@Base 6.0.0
 _ZN19KToolBarPopupActionD1Ev@Base 6.0.0
 _ZN19KToolBarPopupActionD2Ev@Base 6.0.0
 _ZN20KBusyIndicatorWidget10paintEventEP11QPaintEvent@Base 6.0.0
 _ZN20KBusyIndicatorWidget11qt_metacallEN11QMetaObject4CallEiPPv@Base 6.0.0
 _ZN20KBusyIndicatorWidget11qt_metacastEPKc@Base 6.0.0
 _ZN20KBusyIndicatorWidget11resizeEventEP12QResizeEvent@Base 6.0.0
 _ZN20KBusyIndicatorWidget16staticMetaObjectE@Base 6.0.0
 _ZN20KBusyIndicatorWidget5eventEP6QEvent@Base 6.0.0
 _ZN20KBusyIndicatorWidget9hideEventEP10QHideEvent@Base 6.0.0
 _ZN20KBusyIndicatorWidget9showEventEP10QShowEvent@Base 6.0.0
 _ZN20KBusyIndicatorWidgetC1EP7QWidget@Base 6.0.0
 _ZN20KBusyIndicatorWidgetC2EP7QWidget@Base 6.0.0
 _ZN20KBusyIndicatorWidgetD0Ev@Base 6.0.0
 _ZN20KBusyIndicatorWidgetD1Ev@Base 6.0.0
 _ZN20KBusyIndicatorWidgetD2Ev@Base 6.0.0
 _ZN20KCollapsibleGroupBox10leaveEventEP6QEvent@Base 6.0.0
 _ZN20KCollapsibleGroupBox10paintEventEP11QPaintEvent@Base 6.0.0
 _ZN20KCollapsibleGroupBox11qt_metacallEN11QMetaObject4CallEiPPv@Base 6.0.0
 _ZN20KCollapsibleGroupBox11qt_metacastEPKc@Base 6.0.0
 _ZN20KCollapsibleGroupBox11resizeEventEP12QResizeEvent@Base 6.0.0
 _ZN20KCollapsibleGroupBox11setExpandedEb@Base 6.0.0
 _ZN20KCollapsibleGroupBox12titleChangedEv@Base 6.0.0
 _ZN20KCollapsibleGroupBox13keyPressEventEP9QKeyEvent@Base 6.0.0
 _ZN20KCollapsibleGroupBox14mouseMoveEventEP11QMouseEvent@Base 6.0.0
 _ZN20KCollapsibleGroupBox15expandedChangedEv@Base 6.0.0
 _ZN20KCollapsibleGroupBox15mousePressEventEP11QMouseEvent@Base 6.0.0
 _ZN20KCollapsibleGroupBox16staticMetaObjectE@Base 6.0.0
 _ZN20KCollapsibleGroupBox5eventEP6QEvent@Base 6.0.0
 _ZN20KCollapsibleGroupBox6expandEv@Base 6.0.0
 _ZN20KCollapsibleGroupBox6toggleEv@Base 6.0.0
 _ZN20KCollapsibleGroupBox8collapseEv@Base 6.0.0
 _ZN20KCollapsibleGroupBox8setTitleERK7QString@Base 6.0.0
 _ZN20KCollapsibleGroupBoxC1EP7QWidget@Base 6.0.0
 _ZN20KCollapsibleGroupBoxC2EP7QWidget@Base 6.0.0
 _ZN20KCollapsibleGroupBoxD0Ev@Base 6.0.0
 _ZN20KCollapsibleGroupBoxD1Ev@Base 6.0.0
 _ZN20KCollapsibleGroupBoxD2Ev@Base 6.0.0
 _ZN20KToolBarSpacerAction11qt_metacallEN11QMetaObject4CallEiPPv@Base 6.0.0
 _ZN20KToolBarSpacerAction11qt_metacastEPKc@Base 6.0.0
 _ZN20KToolBarSpacerAction12createWidgetEP7QWidget@Base 6.0.0
 _ZN20KToolBarSpacerAction16staticMetaObjectE@Base 6.0.0
 _ZN20KToolBarSpacerActionC1EP7QObject@Base 6.0.0
 _ZN20KToolBarSpacerActionC2EP7QObject@Base 6.0.0
 _ZN20KToolBarSpacerActionD0Ev@Base 6.0.0
 _ZN20KToolBarSpacerActionD1Ev@Base 6.0.0
 _ZN20KToolBarSpacerActionD2Ev@Base 6.0.0
 _ZN20KViewStateSerializer11qt_metacallEN11QMetaObject4CallEiPPv@Base 6.0.0
 _ZN20KViewStateSerializer11qt_metacastEPKc@Base 6.0.0
 _ZN20KViewStateSerializer12restoreStateEv@Base 6.0.0
 _ZN20KViewStateSerializer15restoreExpandedERK5QListI7QStringE@Base 6.0.0
 _ZN20KViewStateSerializer16restoreSelectionERK5QListI7QStringE@Base 6.0.0
 _ZN20KViewStateSerializer16staticMetaObjectE@Base 6.0.0
 _ZN20KViewStateSerializer17setSelectionModelEP19QItemSelectionModel@Base 6.0.0
 _ZN20KViewStateSerializer18restoreCurrentItemERK7QString@Base 6.0.0
 _ZN20KViewStateSerializer18restoreScrollStateEii@Base 6.0.0
 _ZN20KViewStateSerializer7setViewEP17QAbstractItemView@Base 6.0.0
 _ZN20KViewStateSerializerC1EP7QObject@Base 6.0.0
 _ZN20KViewStateSerializerC2EP7QObject@Base 6.0.0
 _ZN20KViewStateSerializerD0Ev@Base 6.0.0
 _ZN20KViewStateSerializerD1Ev@Base 6.0.0
 _ZN20KViewStateSerializerD2Ev@Base 6.0.0
 _ZN21KLineEditEventHandler14catchReturnKeyEP7QObject@Base 6.0.0
 _ZN21KLineEditEventHandler14handleUrlDropsEP7QObject@Base 6.0.0
 _ZN21KPixmapSequenceWidget11qt_metacallEN11QMetaObject4CallEiPPv@Base 6.0.0
 _ZN21KPixmapSequenceWidget11qt_metacastEPKc@Base 6.0.0
 _ZN21KPixmapSequenceWidget11setIntervalEi@Base 6.0.0
 _ZN21KPixmapSequenceWidget11setSequenceERK15KPixmapSequence@Base 6.0.0
 _ZN21KPixmapSequenceWidget16staticMetaObjectE@Base 6.0.0
 _ZN21KPixmapSequenceWidgetC1EP7QWidget@Base 6.0.0
 _ZN21KPixmapSequenceWidgetC1ERK15KPixmapSequenceP7QWidget@Base 6.0.0
 _ZN21KPixmapSequenceWidgetC2EP7QWidget@Base 6.0.0
 _ZN21KPixmapSequenceWidgetC2ERK15KPixmapSequenceP7QWidget@Base 6.0.0
 _ZN21KPixmapSequenceWidgetD0Ev@Base 6.0.0
 _ZN21KPixmapSequenceWidgetD1Ev@Base 6.0.0
 _ZN21KPixmapSequenceWidgetD2Ev@Base 6.0.0
 _ZN22KMimeTypeChooserDialog11qt_metacallEN11QMetaObject4CallEiPPv@Base 6.0.0
 _ZN22KMimeTypeChooserDialog11qt_metacastEPKc@Base 6.0.0
 _ZN22KMimeTypeChooserDialog16staticMetaObjectE@Base 6.0.0
 _ZN22KMimeTypeChooserDialog7chooserEv@Base 6.0.0
 _ZN22KMimeTypeChooserDialogC1ERK7QStringS2_RK5QListIS0_ES2_P7QWidget@Base 6.0.0
 _ZN22KMimeTypeChooserDialogC1ERK7QStringS2_RK5QListIS0_ES2_S6_iP7QWidget@Base 6.0.0
 _ZN22KMimeTypeChooserDialogC2ERK7QStringS2_RK5QListIS0_ES2_P7QWidget@Base 6.0.0
 _ZN22KMimeTypeChooserDialogC2ERK7QStringS2_RK5QListIS0_ES2_S6_iP7QWidget@Base 6.0.0
 _ZN22KMimeTypeChooserDialogD0Ev@Base 6.0.0
 _ZN22KMimeTypeChooserDialogD1Ev@Base 6.0.0
 _ZN22KMimeTypeChooserDialogD2Ev@Base 6.0.0
 _ZN23KToggleFullScreenAction11eventFilterEP7QObjectP6QEvent@Base 6.0.0
 _ZN23KToggleFullScreenAction11qt_metacallEN11QMetaObject4CallEiPPv@Base 6.0.0
 _ZN23KToggleFullScreenAction11qt_metacastEPKc@Base 6.0.0
 _ZN23KToggleFullScreenAction11slotToggledEb@Base 6.0.0
 _ZN23KToggleFullScreenAction13setFullScreenEP7QWidgetb@Base 6.0.0
 _ZN23KToggleFullScreenAction16staticMetaObjectE@Base 6.0.0
 _ZN23KToggleFullScreenAction9setWindowEP7QWidget@Base 6.0.0
 _ZN23KToggleFullScreenActionC1EP7QObject@Base 6.0.0
 _ZN23KToggleFullScreenActionC1EP7QWidgetP7QObject@Base 6.0.0
 _ZN23KToggleFullScreenActionC2EP7QObject@Base 6.0.0
 _ZN23KToggleFullScreenActionC2EP7QWidgetP7QObject@Base 6.0.0
 _ZN23KToggleFullScreenActionD0Ev@Base 6.0.0
 _ZN23KToggleFullScreenActionD1Ev@Base 6.0.0
 _ZN23KToggleFullScreenActionD2Ev@Base 6.0.0
 _ZN23KTwoFingerTapRecognizer12setTapRadiusEi@Base 6.0.0
 _ZN23KTwoFingerTapRecognizer6createEP7QObject@Base 6.0.0
 _ZN23KTwoFingerTapRecognizer9recognizeEP8QGestureP7QObjectP6QEvent@Base 6.0.0
 _ZN23KTwoFingerTapRecognizerC1Ev@Base 6.0.0
 _ZN23KTwoFingerTapRecognizerC2Ev@Base 6.0.0
 _ZN23KTwoFingerTapRecognizerD0Ev@Base 6.0.0
 _ZN23KTwoFingerTapRecognizerD1Ev@Base 6.0.0
 _ZN23KTwoFingerTapRecognizerD2Ev@Base 6.0.0
 _ZN24KDragWidgetDecoratorBase10dragObjectEv@Base 6.0.0
 _ZN24KDragWidgetDecoratorBase11eventFilterEP7QObjectP6QEvent@Base 6.0.0
 _ZN24KDragWidgetDecoratorBase11qt_metacallEN11QMetaObject4CallEiPPv@Base 6.0.0
 _ZN24KDragWidgetDecoratorBase11qt_metacastEPKc@Base 6.0.0
 _ZN24KDragWidgetDecoratorBase14setDragEnabledEb@Base 6.0.0
 _ZN24KDragWidgetDecoratorBase16staticMetaObjectE@Base 6.0.0
 _ZN24KDragWidgetDecoratorBase9startDragEv@Base 6.0.0
 _ZN24KDragWidgetDecoratorBaseC1EP7QWidget@Base 6.0.0
 _ZN24KDragWidgetDecoratorBaseC2EP7QWidget@Base 6.0.0
 _ZN24KDragWidgetDecoratorBaseD0Ev@Base 6.0.0
 _ZN24KDragWidgetDecoratorBaseD1Ev@Base 6.0.0
 _ZN24KDragWidgetDecoratorBaseD2Ev@Base 6.0.0
 _ZN24KSplitterCollapserButton10enterEventEP11QEnterEvent@Base 6.0.0
 _ZN24KSplitterCollapserButton10leaveEventEP6QEvent@Base 6.0.0
 _ZN24KSplitterCollapserButton10paintEventEP11QPaintEvent@Base 6.0.0
 _ZN24KSplitterCollapserButton11eventFilterEP7QObjectP6QEvent@Base 6.0.0
 _ZN24KSplitterCollapserButton11qt_metacallEN11QMetaObject4CallEiPPv@Base 6.0.0
 _ZN24KSplitterCollapserButton11qt_metacastEPKc@Base 6.0.0
 _ZN24KSplitterCollapserButton12setCollapsedEb@Base 6.0.0
 _ZN24KSplitterCollapserButton16staticMetaObjectE@Base 6.0.0
 _ZN24KSplitterCollapserButton7restoreEv@Base 6.0.0
 _ZN24KSplitterCollapserButton8collapseEv@Base 6.0.0
 _ZN24KSplitterCollapserButton9showEventEP10QShowEvent@Base 6.0.0
 _ZN24KSplitterCollapserButtonC1EP7QWidgetP9QSplitter@Base 6.0.0
 _ZN24KSplitterCollapserButtonC2EP7QWidgetP9QSplitter@Base 6.0.0
 _ZN24KSplitterCollapserButtonD0Ev@Base 6.0.0
 _ZN24KSplitterCollapserButtonD1Ev@Base 6.0.0
 _ZN24KSplitterCollapserButtonD2Ev@Base 6.0.0
 _ZN24KViewStateMaintainerBase11qt_metacallEN11QMetaObject4CallEiPPv@Base 6.0.0
 _ZN24KViewStateMaintainerBase11qt_metacastEPKc@Base 6.0.0
 _ZN24KViewStateMaintainerBase16staticMetaObjectE@Base 6.0.0
 _ZN24KViewStateMaintainerBase17setSelectionModelEP19QItemSelectionModel@Base 6.0.0
 _ZN24KViewStateMaintainerBase7setViewEP17QAbstractItemView@Base 6.0.0
 _ZN24KViewStateMaintainerBaseC1EP7QObject@Base 6.0.0
 _ZN24KViewStateMaintainerBaseC2EP7QObject@Base 6.0.0
 _ZN24KViewStateMaintainerBaseD0Ev@Base 6.0.0
 _ZN24KViewStateMaintainerBaseD1Ev@Base 6.0.0
 _ZN24KViewStateMaintainerBaseD2Ev@Base 6.0.0
 _ZN25KTwoFingerSwipeRecognizer15setMaxSwipeTimeEi@Base 6.0.0
 _ZN25KTwoFingerSwipeRecognizer16setSwipeDistanceEi@Base 6.0.0
 _ZN25KTwoFingerSwipeRecognizer6createEP7QObject@Base 6.0.0
 _ZN25KTwoFingerSwipeRecognizer9recognizeEP8QGestureP7QObjectP6QEvent@Base 6.0.0
 _ZN25KTwoFingerSwipeRecognizerC1Ev@Base 6.0.0
 _ZN25KTwoFingerSwipeRecognizerC2Ev@Base 6.0.0
 _ZN25KTwoFingerSwipeRecognizerD0Ev@Base 6.0.0
 _ZN25KTwoFingerSwipeRecognizerD1Ev@Base 6.0.0
 _ZN25KTwoFingerSwipeRecognizerD2Ev@Base 6.0.0
 _ZN27KLineEditUrlDropEventFilter11eventFilterEP7QObjectP6QEvent@Base 6.0.0
 _ZN27KLineEditUrlDropEventFilter11qt_metacallEN11QMetaObject4CallEiPPv@Base 6.0.0
 _ZN27KLineEditUrlDropEventFilter11qt_metacastEPKc@Base 6.0.0
 _ZN27KLineEditUrlDropEventFilter16staticMetaObjectE@Base 6.0.0
 _ZN27KLineEditUrlDropEventFilterC1EP7QObject@Base 6.0.0
 _ZN27KLineEditUrlDropEventFilterC2EP7QObject@Base 6.0.0
 _ZN27KLineEditUrlDropEventFilterD0Ev@Base 6.0.0
 _ZN27KLineEditUrlDropEventFilterD1Ev@Base 6.0.0
 _ZN27KLineEditUrlDropEventFilterD2Ev@Base 6.0.0
 _ZN27KPixmapRegionSelectorDialog11qt_metacallEN11QMetaObject4CallEiPPv@Base 6.0.0
 _ZN27KPixmapRegionSelectorDialog11qt_metacastEPKc@Base 6.0.0
 _ZN27KPixmapRegionSelectorDialog16getSelectedImageERK7QPixmapP7QWidget@Base 6.0.0
 _ZN27KPixmapRegionSelectorDialog16getSelectedImageERK7QPixmapiiP7QWidget@Base 6.0.0
 _ZN27KPixmapRegionSelectorDialog16staticMetaObjectE@Base 6.0.0
 _ZN27KPixmapRegionSelectorDialog17getSelectedRegionERK7QPixmapP7QWidget@Base 6.0.0
 _ZN27KPixmapRegionSelectorDialog17getSelectedRegionERK7QPixmapiiP7QWidget@Base 6.0.0
 _ZN27KPixmapRegionSelectorDialog41adjustRegionSelectorWidgetSizeToFitScreenEv@Base 6.0.0
 _ZN27KPixmapRegionSelectorDialogC1EP7QWidget@Base 6.0.0
 _ZN27KPixmapRegionSelectorDialogC2EP7QWidget@Base 6.0.0
 _ZN27KPixmapRegionSelectorDialogD0Ev@Base 6.0.0
 _ZN27KPixmapRegionSelectorDialogD1Ev@Base 6.0.0
 _ZN27KPixmapRegionSelectorDialogD2Ev@Base 6.0.0
 _ZN27KPixmapRegionSelectorWidget11eventFilterEP7QObjectP6QEvent@Base 6.0.0
 _ZN27KPixmapRegionSelectorWidget11qt_metacallEN11QMetaObject4CallEiPPv@Base 6.0.0
 _ZN27KPixmapRegionSelectorWidget11qt_metacastEPKc@Base 6.0.0
 _ZN27KPixmapRegionSelectorWidget13pixmapRotatedEv@Base 6.0.0
 _ZN27KPixmapRegionSelectorWidget14resetSelectionEv@Base 6.0.0
 _ZN27KPixmapRegionSelectorWidget15createPopupMenuEv@Base 6.0.0
 _ZN27KPixmapRegionSelectorWidget15rotateClockwiseEv@Base 6.0.0
 _ZN27KPixmapRegionSelectorWidget16staticMetaObjectE@Base 6.0.0
 _ZN27KPixmapRegionSelectorWidget17setSelectedRegionERK5QRect@Base 6.0.0
 _ZN27KPixmapRegionSelectorWidget20setMaximumWidgetSizeEii@Base 6.0.0
 _ZN27KPixmapRegionSelectorWidget22rotateCounterclockwiseEv@Base 6.0.0
 _ZN27KPixmapRegionSelectorWidget23setSelectionAspectRatioEii@Base 6.0.0
 _ZN27KPixmapRegionSelectorWidget27setFreeSelectionAspectRatioEv@Base 6.0.0
 _ZN27KPixmapRegionSelectorWidget6rotateENS_15RotateDirectionE@Base 6.0.0
 _ZN27KPixmapRegionSelectorWidget9setPixmapERK7QPixmap@Base 6.0.0
 _ZN27KPixmapRegionSelectorWidgetC1EP7QWidget@Base 6.0.0
 _ZN27KPixmapRegionSelectorWidgetC2EP7QWidget@Base 6.0.0
 _ZN27KPixmapRegionSelectorWidgetD0Ev@Base 6.0.0
 _ZN27KPixmapRegionSelectorWidgetD1Ev@Base 6.0.0
 _ZN27KPixmapRegionSelectorWidgetD2Ev@Base 6.0.0
 _ZN29KPixmapSequenceOverlayPainter11eventFilterEP7QObjectP6QEvent@Base 6.0.0
 _ZN29KPixmapSequenceOverlayPainter11qt_metacallEN11QMetaObject4CallEiPPv@Base 6.0.0
 _ZN29KPixmapSequenceOverlayPainter11qt_metacastEPKc@Base 6.0.0
 _ZN29KPixmapSequenceOverlayPainter11setIntervalEi@Base 6.0.0
 _ZN29KPixmapSequenceOverlayPainter11setSequenceERK15KPixmapSequence@Base 6.0.0
 _ZN29KPixmapSequenceOverlayPainter12setAlignmentE6QFlagsIN2Qt13AlignmentFlagEE@Base 6.0.0
 _ZN29KPixmapSequenceOverlayPainter16staticMetaObjectE@Base 6.0.0
 _ZN29KPixmapSequenceOverlayPainter4stopEv@Base 6.0.0
 _ZN29KPixmapSequenceOverlayPainter5startEv@Base 6.0.0
 _ZN29KPixmapSequenceOverlayPainter7setRectERK5QRect@Base 6.0.0
 _ZN29KPixmapSequenceOverlayPainter9setOffsetERK6QPoint@Base 6.0.0
 _ZN29KPixmapSequenceOverlayPainter9setWidgetEP7QWidget@Base 6.0.0
 _ZN29KPixmapSequenceOverlayPainterC1EP7QObject@Base 6.0.0
 _ZN29KPixmapSequenceOverlayPainterC1ERK15KPixmapSequenceP7QObject@Base 6.0.0
 _ZN29KPixmapSequenceOverlayPainterC2EP7QObject@Base 6.0.0
 _ZN29KPixmapSequenceOverlayPainterC2ERK15KPixmapSequenceP7QObject@Base 6.0.0
 _ZN29KPixmapSequenceOverlayPainterD0Ev@Base 6.0.0
 _ZN29KPixmapSequenceOverlayPainterD1Ev@Base 6.0.0
 _ZN29KPixmapSequenceOverlayPainterD2Ev@Base 6.0.0
 _ZN4KLed10paintEventEP11QPaintEvent@Base 6.0.0
 _ZN4KLed11qt_metacallEN11QMetaObject4CallEiPPv@Base 6.0.0
 _ZN4KLed11qt_metacastEPKc@Base 6.0.0
 _ZN4KLed11resizeEventEP12QResizeEvent@Base 6.0.0
 _ZN4KLed13setDarkFactorEi@Base 6.0.0
 _ZN4KLed16staticMetaObjectE@Base 6.0.0
 _ZN4KLed2onEv@Base 6.0.0
 _ZN4KLed3offEv@Base 6.0.0
 _ZN4KLed6toggleEv@Base 6.0.0
 _ZN4KLed7setLookENS_4LookE@Base 6.0.0
 _ZN4KLed8setColorERK6QColor@Base 6.0.0
 _ZN4KLed8setShapeENS_5ShapeE@Base 6.0.0
 _ZN4KLed8setStateENS_5StateE@Base 6.0.0
 _ZN4KLedC1EP7QWidget@Base 6.0.0
 _ZN4KLedC1ERK6QColorNS_5StateENS_4LookENS_5ShapeEP7QWidget@Base 6.0.0
 _ZN4KLedC1ERK6QColorP7QWidget@Base 6.0.0
 _ZN4KLedC2EP7QWidget@Base 6.0.0
 _ZN4KLedC2ERK6QColorNS_5StateENS_4LookENS_5ShapeEP7QWidget@Base 6.0.0
 _ZN4KLedC2ERK6QColorP7QWidget@Base 6.0.0
 _ZN4KLedD0Ev@Base 6.0.0
 _ZN4KLedD1Ev@Base 6.0.0
 _ZN4KLedD2Ev@Base 6.0.0
 _ZN6KRuler10paintEventEP11QPaintEvent@Base 6.0.0
 _ZN6KRuler11qt_metacallEN11QMetaObject4CallEiPPv@Base 6.0.0
 _ZN6KRuler11qt_metacastEPKc@Base 6.0.0
 _ZN6KRuler11setEndLabelERK7QString@Base 6.0.0
 _ZN6KRuler12slotNewValueEi@Base 6.0.0
 _ZN6KRuler13slotEndOffsetEi@Base 6.0.0
 _ZN6KRuler13slotNewOffsetEi@Base 6.0.0
 _ZN6KRuler14setLengthFixedEb@Base 6.0.0
 _ZN6KRuler14setShowPointerEb@Base 6.0.0
 _ZN6KRuler15setPixelPerMarkEd@Base 6.0.0
 _ZN6KRuler15setShowBigMarksEb@Base 6.0.0
 _ZN6KRuler15setShowEndLabelEb@Base 6.0.0
 _ZN6KRuler15setShowEndMarksEb@Base 6.0.0
 _ZN6KRuler16setShowTinyMarksEb@Base 6.0.0
 _ZN6KRuler16staticMetaObjectE@Base 6.0.0
 _ZN6KRuler18setBigMarkDistanceEi@Base 6.0.0
 _ZN6KRuler18setShowLittleMarksEb@Base 6.0.0
 _ZN6KRuler18setShowMediumMarksEb@Base 6.0.0
 _ZN6KRuler19setRulerMetricStyleENS_11MetricStyleE@Base 6.0.0
 _ZN6KRuler19setTinyMarkDistanceEi@Base 6.0.0
 _ZN6KRuler21setLittleMarkDistanceEi@Base 6.0.0
 _ZN6KRuler21setMediumMarkDistanceEi@Base 6.0.0
 _ZN6KRuler7slideUpEi@Base 6.0.0
 _ZN6KRuler9setLengthEi@Base 6.0.0
 _ZN6KRuler9setOffsetEi@Base 6.0.0
 _ZN6KRuler9slideDownEi@Base 6.0.0
 _ZN6KRulerC1EN2Qt11OrientationEP7QWidget6QFlagsINS0_10WindowTypeEE@Base 6.0.0
 _ZN6KRulerC1EN2Qt11OrientationEiP7QWidget6QFlagsINS0_10WindowTypeEE@Base 6.0.0
 _ZN6KRulerC1EP7QWidget@Base 6.0.0
 _ZN6KRulerC2EN2Qt11OrientationEP7QWidget6QFlagsINS0_10WindowTypeEE@Base 6.0.0
 _ZN6KRulerC2EN2Qt11OrientationEiP7QWidget6QFlagsINS0_10WindowTypeEE@Base 6.0.0
 _ZN6KRulerC2EP7QWidget@Base 6.0.0
 _ZN6KRulerD0Ev@Base 6.0.0
 _ZN6KRulerD1Ev@Base 6.0.0
 _ZN6KRulerD2Ev@Base 6.0.0
 _ZN7KCursor15hideCursorDelayEv@Base 6.0.0
 _ZN7KCursor17setAutoHideCursorEP7QWidgetbb@Base 6.0.0
 _ZN7KCursor18setHideCursorDelayEi@Base 6.0.0
 _ZN7KCursor19autoHideEventFilterEP7QObjectP6QEvent@Base 6.0.0
 _ZN8KGuiItem10setEnabledEb@Base 6.0.0
 _ZN8KGuiItem10setToolTipERK7QString@Base 6.0.0
 _ZN8KGuiItem11setIconNameERK7QString@Base 6.0.0
 _ZN8KGuiItem12setWhatsThisERK7QString@Base 6.0.0
 _ZN8KGuiItem6assignEP11QPushButtonRKS_@Base 6.0.0
 _ZN8KGuiItem7setIconERK5QIcon@Base 6.0.0
 _ZN8KGuiItem7setTextERK7QString@Base 6.0.0
 _ZN8KGuiItemC1ERK7QStringRK5QIconS2_S2_@Base 6.0.0
 _ZN8KGuiItemC1ERK7QStringS2_S2_S2_@Base 6.0.0
 _ZN8KGuiItemC1ERKS_@Base 6.0.0
 _ZN8KGuiItemC1Ev@Base 6.0.0
 _ZN8KGuiItemC2ERK7QStringRK5QIconS2_S2_@Base 6.0.0
 _ZN8KGuiItemC2ERK7QStringS2_S2_S2_@Base 6.0.0
 _ZN8KGuiItemC2ERKS_@Base 6.0.0
 _ZN8KGuiItemC2Ev@Base 6.0.0
 _ZN8KGuiItemD1Ev@Base 6.0.0
 _ZN8KGuiItemD2Ev@Base 6.0.0
 _ZN8KGuiItemaSERKS_@Base 6.0.0
 _ZN9KPageView10createViewEv@Base 6.0.0
 _ZN9KPageView11qt_metacallEN11QMetaObject4CallEiPPv@Base 6.0.0
 _ZN9KPageView11qt_metacastEPKc@Base 6.0.0
 _ZN9KPageView11setFaceTypeENS_8FaceTypeE@Base 6.0.0
 _ZN9KPageView13setPageFooterEP7QWidget@Base 6.0.0
 _ZN9KPageView13setPageHeaderEP7QWidget@Base 6.0.0
 _ZN9KPageView14setCurrentPageERK11QModelIndex@Base 6.0.0
 _ZN9KPageView15setItemDelegateEP21QAbstractItemDelegate@Base 6.0.0
 _ZN9KPageView16setDefaultWidgetEP7QWidget@Base 6.0.0
 _ZN9KPageView16staticMetaObjectE@Base 6.0.0
 _ZN9KPageView18currentPageChangedERK11QModelIndexS2_@Base 6.0.0
 _ZN9KPageView8setModelEP18QAbstractItemModel@Base 6.0.0
 _ZN9KPageViewC1EP7QWidget@Base 6.0.0
 _ZN9KPageViewC2EP7QWidget@Base 6.0.0
 _ZN9KPageViewD0Ev@Base 6.0.0
 _ZN9KPageViewD1Ev@Base 6.0.0
 _ZN9KPageViewD2Ev@Base 6.0.0
 _ZN9KPassword16staticMetaObjectE@Base 6.0.0
 _ZN9KSelector10paintEventEP11QPaintEvent@Base 6.0.0
 _ZN9KSelector10wheelEventEP11QWheelEvent@Base 6.0.0
 _ZN9KSelector11qt_metacallEN11QMetaObject4CallEiPPv@Base 6.0.0
 _ZN9KSelector11qt_metacastEPKc@Base 6.0.0
 _ZN9KSelector12drawContentsEP8QPainter@Base 6.0.0
 _ZN9KSelector14mouseMoveEventEP11QMouseEvent@Base 6.0.0
 _ZN9KSelector15mousePressEventEP11QMouseEvent@Base 6.0.0
 _ZN9KSelector16staticMetaObjectE@Base 6.0.0
 _ZN9KSelector17mouseReleaseEventEP11QMouseEvent@Base 6.0.0
 _ZN9KSelector17setArrowDirectionEN2Qt9ArrowTypeE@Base 6.0.0
 _ZN9KSelector9drawArrowEP8QPainterRK6QPoint@Base 6.0.0
 _ZN9KSelector9setIndentEb@Base 6.0.0
 _ZN9KSelectorC1EN2Qt11OrientationEP7QWidget@Base 6.0.0
 _ZN9KSelectorC1EP7QWidget@Base 6.0.0
 _ZN9KSelectorC2EN2Qt11OrientationEP7QWidget@Base 6.0.0
 _ZN9KSelectorC2EP7QWidget@Base 6.0.0
 _ZN9KSelectorD0Ev@Base 6.0.0
 _ZN9KSelectorD1Ev@Base 6.0.0
 _ZN9KSelectorD2Ev@Base 6.0.0
 _ZN9KUrlLabel10enterEventEP11QEnterEvent@Base 6.0.0
 _ZN9KUrlLabel10enteredUrlEv@Base 6.0.0
 _ZN9KUrlLabel10leaveEventEP6QEvent@Base 6.0.0
 _ZN9KUrlLabel10setTipTextERK7QString@Base 6.0.0
 _ZN9KUrlLabel10setUseTipsEb@Base 6.0.0
 _ZN9KUrlLabel11qt_metacallEN11QMetaObject4CallEiPPv@Base 6.0.0
 _ZN9KUrlLabel11qt_metacastEPKc@Base 6.0.0
 _ZN9KUrlLabel12setUnderlineEb@Base 6.0.0
 _ZN9KUrlLabel12setUseCursorEbP7QCursor@Base 6.0.0
 _ZN9KUrlLabel14leftClickedUrlEv@Base 6.0.0
 _ZN9KUrlLabel14setGlowEnabledEb@Base 6.0.0
 _ZN9KUrlLabel15rightClickedUrlEv@Base 6.0.0
 _ZN9KUrlLabel15setFloatEnabledEb@Base 6.0.0
 _ZN9KUrlLabel16middleClickedUrlEv@Base 6.0.0
 _ZN9KUrlLabel16setSelectedColorERK6QColor@Base 6.0.0
 _ZN9KUrlLabel16setSelectedColorERK7QString@Base 6.0.0
 _ZN9KUrlLabel16staticMetaObjectE@Base 6.0.0
 _ZN9KUrlLabel17mouseReleaseEventEP11QMouseEvent@Base 6.0.0
 _ZN9KUrlLabel18setAlternatePixmapERK7QPixmap@Base 6.0.0
 _ZN9KUrlLabel19setHighlightedColorERK6QColor@Base 6.0.0
 _ZN9KUrlLabel19setHighlightedColorERK7QString@Base 6.0.0
 _ZN9KUrlLabel5eventEP6QEvent@Base 6.0.0
 _ZN9KUrlLabel6setUrlERK7QString@Base 6.0.0
 _ZN9KUrlLabel7leftUrlEv@Base 6.0.0
 _ZN9KUrlLabel7setFontERK5QFont@Base 6.0.0
 _ZN9KUrlLabelC1EP7QWidget@Base 6.0.0
 _ZN9KUrlLabelC1ERK7QStringS2_P7QWidget@Base 6.0.0
 _ZN9KUrlLabelC2EP7QWidget@Base 6.0.0
 _ZN9KUrlLabelC2ERK7QStringS2_P7QWidget@Base 6.0.0
 _ZN9KUrlLabelD0Ev@Base 6.0.0
 _ZN9KUrlLabelD1Ev@Base 6.0.0
 _ZN9KUrlLabelD2Ev@Base 6.0.0
 _ZNK10KPageModel10metaObjectEv@Base 6.0.0
 _ZNK10KSeparator10metaObjectEv@Base 6.0.0
 _ZNK10KSeparator11orientationEv@Base 6.0.0
 _ZNK11KActionMenu10metaObjectEv@Base 6.0.0
 _ZNK11KActionMenu9popupModeEv@Base 6.0.0
 _ZNK11KCharSelect10metaObjectEv@Base 6.0.0
 _ZNK11KCharSelect11currentCharEv@Base 6.0.0
 _ZNK11KCharSelect11currentFontEv@Base 6.0.0
 _ZNK11KCharSelect14displayedCharsEv@Base 6.0.0
 _ZNK11KCharSelect16allPlanesEnabledEv@Base 6.0.0
 _ZNK11KCharSelect16currentCodePointEv@Base 6.0.0
 _ZNK11KCharSelect19displayedCodePointsEv@Base 6.0.0
 _ZNK11KCharSelect8sizeHintEv@Base 6.0.0
 _ZNK11KColorCombo10metaObjectEv@Base 6.0.0
 _ZNK11KColorCombo13isCustomColorEv@Base 6.0.0
 _ZNK11KColorCombo5colorEv@Base 6.0.0
 _ZNK11KColorCombo6colorsEv@Base 6.0.0
 _ZNK11KDatePicker10metaObjectEv@Base 6.0.0
 _ZNK11KDatePicker14hasCloseButtonEv@Base 6.0.0
 _ZNK11KDatePicker4dateEv@Base 6.0.0
 _ZNK11KDatePicker8fontSizeEv@Base 6.0.0
 _ZNK11KDatePicker8sizeHintEv@Base 6.0.0
 _ZNK11KDualAction10activeIconEv@Base 6.0.0
 _ZNK11KDualAction10activeTextEv@Base 6.0.0
 _ZNK11KDualAction10autoToggleEv@Base 6.0.0
 _ZNK11KDualAction10metaObjectEv@Base 6.0.0
 _ZNK11KDualAction12inactiveIconEv@Base 6.0.0
 _ZNK11KDualAction12inactiveTextEv@Base 6.0.0
 _ZNK11KDualAction13activeGuiItemEv@Base 6.0.0
 _ZNK11KDualAction13activeToolTipEv@Base 6.0.0
 _ZNK11KDualAction15inactiveGuiItemEv@Base 6.0.0
 _ZNK11KDualAction15inactiveToolTipEv@Base 6.0.0
 _ZNK11KDualAction8isActiveEv@Base 6.0.0
 _ZNK11KFontAction10metaObjectEv@Base 6.0.0
 _ZNK11KFontAction4fontEv@Base 6.0.0
 _ZNK11KPageDialog10metaObjectEv@Base 6.0.0
 _ZNK11KPageDialog10pageWidgetEv@Base 6.0.0
 _ZNK11KPageDialog11currentPageEv@Base 6.0.0
 _ZNK11KPageDialog6buttonEN16QDialogButtonBox14StandardButtonE@Base 6.0.0
 _ZNK11KPageDialog9buttonBoxEv@Base 6.0.0
 _ZNK11KPageWidget10metaObjectEv@Base 6.0.0
 _ZNK11KPageWidget11currentPageEv@Base 6.0.0
 _ZNK11KPopupFrame10metaObjectEv@Base 6.0.0
 _ZNK11KXYSelector10metaObjectEv@Base 6.0.0
 _ZNK11KXYSelector12contentsRectEv@Base 6.0.0
 _ZNK11KXYSelector15minimumSizeHintEv@Base 6.0.0
 _ZNK11KXYSelector18valuesFromPositionEiiRiS0_@Base 6.0.0
 _ZNK11KXYSelector6xValueEv@Base 6.0.0
 _ZNK11KXYSelector6yValueEv@Base 6.0.0
 _ZNK12KCapacityBar10continuousEv@Base 6.0.0
 _ZNK12KCapacityBar10metaObjectEv@Base 6.0.0
 _ZNK12KCapacityBar12drawTextModeEv@Base 6.0.0
 _ZNK12KCapacityBar14fillFullBlocksEv@Base 6.0.0
 _ZNK12KCapacityBar15drawCapacityBarEP8QPainterRK5QRect@Base 6.0.0
 _ZNK12KCapacityBar15minimumSizeHintEv@Base 6.0.0
 _ZNK12KCapacityBar23horizontalTextAlignmentEv@Base 6.0.0
 _ZNK12KCapacityBar4textEv@Base 6.0.0
 _ZNK12KCapacityBar5valueEv@Base 6.0.0
 _ZNK12KCapacityBar9barHeightEv@Base 6.0.0
 _ZNK12KColorButton10metaObjectEv@Base 6.0.0
 _ZNK12KColorButton12defaultColorEv@Base 6.0.0
 _ZNK12KColorButton15minimumSizeHintEv@Base 6.0.0
 _ZNK12KColorButton21isAlphaChannelEnabledEv@Base 6.0.0
 _ZNK12KColorButton5colorEv@Base 6.0.0
 _ZNK12KColorButton8sizeHintEv@Base 6.0.0
 _ZNK12KFontChooser10metaObjectEv@Base 6.0.0
 _ZNK12KFontChooser10sampleTextEv@Base 6.0.0
 _ZNK12KFontChooser13fontDiffFlagsEv@Base 6.0.0
 _ZNK12KFontChooser15backgroundColorEv@Base 6.0.0
 _ZNK12KFontChooser4fontEv@Base 6.0.0
 _ZNK12KFontChooser5colorEv@Base 6.0.0
 _ZNK12KFontChooser8sizeHintEv@Base 6.0.0
 _ZNK12KMultiTabBar10metaObjectEv@Base 6.0.0
 _ZNK12KMultiTabBar11isTabRaisedEi@Base 6.0.0
 _ZNK12KMultiTabBar3tabEi@Base 6.0.0
 _ZNK12KMultiTabBar6buttonEi@Base 6.0.0
 _ZNK12KMultiTabBar8positionEv@Base 6.0.0
 _ZNK12KMultiTabBar8tabStyleEv@Base 6.0.0
 _ZNK12KTitleWidget10metaObjectEv@Base 6.0.0
 _ZNK12KTitleWidget15autoHideTimeoutEv@Base 6.0.0
 _ZNK12KTitleWidget4iconEv@Base 6.0.0
 _ZNK12KTitleWidget4textEv@Base 6.0.0
 _ZNK12KTitleWidget7commentEv@Base 6.0.0
 _ZNK12KTitleWidget8iconSizeEv@Base 6.0.0
 _ZNK13KDateComboBox10metaObjectEv@Base 6.0.0
 _ZNK13KDateComboBox11maximumDateEv@Base 6.0.0
 _ZNK13KDateComboBox11minimumDateEv@Base 6.0.0
 _ZNK13KDateComboBox13displayFormatEv@Base 6.0.0
 _ZNK13KDateComboBox4dateEv@Base 6.0.0
 _ZNK13KDateComboBox6isNullEv@Base 6.0.0
 _ZNK13KDateComboBox7dateMapEv@Base 6.0.0
 _ZNK13KDateComboBox7isValidEv@Base 6.0.0
 _ZNK13KDateComboBox7optionsEv@Base 6.0.0
 _ZNK13KDateTimeEdit10isNullDateEv@Base 6.0.0
 _ZNK13KDateTimeEdit10isNullTimeEv@Base 6.0.0
 _ZNK13KDateTimeEdit10metaObjectEv@Base 6.0.0
 _ZNK13KDateTimeEdit11isValidDateEv@Base 6.0.0
 _ZNK13KDateTimeEdit11isValidTimeEv@Base 6.0.0
 _ZNK13KDateTimeEdit15maximumDateTimeEv@Base 6.0.0
 _ZNK13KDateTimeEdit15minimumDateTimeEv@Base 6.0.0
 _ZNK13KDateTimeEdit16timeListIntervalEv@Base 6.0.0
 _ZNK13KDateTimeEdit17dateDisplayFormatEv@Base 6.0.0
 _ZNK13KDateTimeEdit17timeDisplayFormatEv@Base 6.0.0
 _ZNK13KDateTimeEdit19calendarLocalesListEv@Base 6.0.0
 _ZNK13KDateTimeEdit4dateEv@Base 6.0.0
 _ZNK13KDateTimeEdit4timeEv@Base 6.0.0
 _ZNK13KDateTimeEdit6isNullEv@Base 6.0.0
 _ZNK13KDateTimeEdit7dateMapEv@Base 6.0.0
 _ZNK13KDateTimeEdit7isValidEv@Base 6.0.0
 _ZNK13KDateTimeEdit7optionsEv@Base 6.0.0
 _ZNK13KDateTimeEdit8dateTimeEv@Base 6.0.0
 _ZNK13KDateTimeEdit8timeListEv@Base 6.0.0
 _ZNK13KDateTimeEdit8timeZoneEv@Base 6.0.0
 _ZNK13KDateTimeEdit9timeZonesEv@Base 6.0.0
 _ZNK13KRatingWidget10metaObjectEv@Base 6.0.0
 _ZNK13KRatingWidget15layoutDirectionEv@Base 6.0.0
 _ZNK13KRatingWidget16halfStepsEnabledEv@Base 6.0.0
 _ZNK13KRatingWidget4iconEv@Base 6.0.0
 _ZNK13KRatingWidget6ratingEv@Base 6.0.0
 _ZNK13KRatingWidget7spacingEv@Base 6.0.0
 _ZNK13KRatingWidget8sizeHintEv@Base 6.0.0
 _ZNK13KRatingWidget9alignmentEv@Base 6.0.0
 _ZNK13KRatingWidget9maxRatingEv@Base 6.0.0
 _ZNK13KSelectAction10comboWidthEv@Base 6.0.0
 _ZNK13KSelectAction10isEditableEv@Base 6.0.0
 _ZNK13KSelectAction10metaObjectEv@Base 6.0.0
 _ZNK13KSelectAction11currentItemEv@Base 6.0.0
 _ZNK13KSelectAction11currentTextEv@Base 6.0.0
 _ZNK13KSelectAction11toolBarModeEv@Base 6.0.0
 _ZNK13KSelectAction13currentActionEv@Base 6.0.0
 _ZNK13KSelectAction17menuAccelsEnabledEv@Base 6.0.0
 _ZNK13KSelectAction19toolButtonPopupModeEv@Base 6.0.0
 _ZNK13KSelectAction21selectableActionGroupEv@Base 6.0.0
 _ZNK13KSelectAction5itemsEv@Base 6.0.0
 _ZNK13KSelectAction6actionERK7QStringN2Qt15CaseSensitivityE@Base 6.0.0
 _ZNK13KSelectAction6actionEi@Base 6.0.0
 _ZNK13KSelectAction7actionsEv@Base 6.0.0
 _ZNK13KTimeComboBox10metaObjectEv@Base 6.0.0
 _ZNK13KTimeComboBox11maximumTimeEv@Base 6.0.0
 _ZNK13KTimeComboBox11minimumTimeEv@Base 6.0.0
 _ZNK13KTimeComboBox13displayFormatEv@Base 6.0.0
 _ZNK13KTimeComboBox16timeListIntervalEv@Base 6.0.0
 _ZNK13KTimeComboBox4timeEv@Base 6.0.0
 _ZNK13KTimeComboBox6isNullEv@Base 6.0.0
 _ZNK13KTimeComboBox7isValidEv@Base 6.0.0
 _ZNK13KTimeComboBox7optionsEv@Base 6.0.0
 _ZNK13KTimeComboBox8timeListEv@Base 6.0.0
 _ZNK13KToggleAction10metaObjectEv@Base 6.0.0
 _ZNK13KTwoFingerTap10metaObjectEv@Base 6.0.0
 _ZNK13KTwoFingerTap3posEv@Base 6.0.0
 _ZNK13KTwoFingerTap8scenePosEv@Base 6.0.0
 _ZNK13KTwoFingerTap9screenPosEv@Base 6.0.0
 _ZNK14KColumnResizer10metaObjectEv@Base 6.0.0
 _ZNK14KFontRequester10metaObjectEv@Base 6.0.0
 _ZNK14KFontRequester10sampleTextEv@Base 6.0.0
 _ZNK14KFontRequester11isFixedOnlyEv@Base 6.0.0
 _ZNK14KFontRequester4fontEv@Base 6.0.0
 _ZNK14KFontRequester5labelEv@Base 6.0.0
 _ZNK14KFontRequester5titleEv@Base 6.0.0
 _ZNK14KFontRequester6buttonEv@Base 6.0.0
 _ZNK14KMessageDialog10metaObjectEv@Base 6.0.0
 _ZNK14KMessageDialog15isNotifyEnabledEv@Base 6.0.0
 _ZNK14KMessageDialog21isDontAskAgainCheckedEv@Base 6.0.0
 _ZNK14KMessageWidget10metaObjectEv@Base 6.0.0
 _ZNK14KMessageWidget10textFormatEv@Base 6.0.0
 _ZNK14KMessageWidget11messageTypeEv@Base 6.0.0
 _ZNK14KMessageWidget14heightForWidthEi@Base 6.0.0
 _ZNK14KMessageWidget15minimumSizeHintEv@Base 6.0.0
 _ZNK14KMessageWidget20isCloseButtonVisibleEv@Base 6.0.0
 _ZNK14KMessageWidget22isHideAnimationRunningEv@Base 6.0.0
 _ZNK14KMessageWidget22isShowAnimationRunningEv@Base 6.0.0
 _ZNK14KMessageWidget4iconEv@Base 6.0.0
 _ZNK14KMessageWidget4textEv@Base 6.0.0
 _ZNK14KMessageWidget8positionEv@Base 6.0.0
 _ZNK14KMessageWidget8sizeHintEv@Base 6.0.0
 _ZNK14KMessageWidget8wordWrapEv@Base 6.0.0
 _ZNK14KRatingPainter12customPixmapEv@Base 6.0.0
 _ZNK14KRatingPainter15layoutDirectionEv@Base 6.0.0
 _ZNK14KRatingPainter16halfStepsEnabledEv@Base 6.0.0
 _ZNK14KRatingPainter18ratingFromPositionERK5QRectRK6QPoint@Base 6.0.0
 _ZNK14KRatingPainter4iconEv@Base 6.0.0
 _ZNK14KRatingPainter5paintEP8QPainterRK5QRectii@Base 6.0.0
 _ZNK14KRatingPainter7spacingEv@Base 6.0.0
 _ZNK14KRatingPainter9alignmentEv@Base 6.0.0
 _ZNK14KRatingPainter9isEnabledEv@Base 6.0.0
 _ZNK14KRatingPainter9maxRatingEv@Base 6.0.0
 _ZNK14KToolTipWidget10metaObjectEv@Base 6.0.0
 _ZNK14KToolTipWidget9hideDelayEv@Base 6.0.0
 _ZNK15KActionSelector10metaObjectEv@Base 6.0.0
 _ZNK15KActionSelector13selectedLabelEv@Base 6.0.0
 _ZNK15KActionSelector14availableLabelEv@Base 6.0.0
 _ZNK15KActionSelector15keyboardEnabledEv@Base 6.0.0
 _ZNK15KActionSelector17moveOnDoubleClickEv@Base 6.0.0
 _ZNK15KActionSelector17showUpDownButtonsEv@Base 6.0.0
 _ZNK15KActionSelector18selectedListWidgetEv@Base 6.0.0
 _ZNK15KActionSelector19availableListWidgetEv@Base 6.0.0
 _ZNK15KActionSelector23selectedInsertionPolicyEv@Base 6.0.0
 _ZNK15KActionSelector24availableInsertionPolicyEv@Base 6.0.0
 _ZNK15KAnimatedButton10metaObjectEv@Base 6.0.0
 _ZNK15KAnimatedButton13animationPathEv@Base 6.0.0
 _ZNK15KEditListWidget10downButtonEv@Base 6.0.0
 _ZNK15KEditListWidget10metaObjectEv@Base 6.0.0
 _ZNK15KEditListWidget11currentItemEv@Base 6.0.0
 _ZNK15KEditListWidget11currentTextEv@Base 6.0.0
 _ZNK15KEditListWidget12CustomEditor20representationWidgetEv@Base 6.0.0
 _ZNK15KEditListWidget12CustomEditor8lineEditEv@Base 6.0.0
 _ZNK15KEditListWidget12removeButtonEv@Base 6.0.0
 _ZNK15KEditListWidget4textEi@Base 6.0.0
 _ZNK15KEditListWidget5countEv@Base 6.0.0
 _ZNK15KEditListWidget5itemsEv@Base 6.0.0
 _ZNK15KEditListWidget7buttonsEv@Base 6.0.0
 _ZNK15KEditListWidget8lineEditEv@Base 6.0.0
 _ZNK15KEditListWidget8listViewEv@Base 6.0.0
 _ZNK15KEditListWidget8upButtonEv@Base 6.0.0
 _ZNK15KEditListWidget9addButtonEv@Base 6.0.0
 _ZNK15KFontSizeAction10metaObjectEv@Base 6.0.0
 _ZNK15KFontSizeAction8fontSizeEv@Base 6.0.0
 _ZNK15KMultiTabBarTab10metaObjectEv@Base 6.0.0
 _ZNK15KMultiTabBarTab15minimumSizeHintEv@Base 6.0.0
 _ZNK15KMultiTabBarTab8sizeHintEv@Base 6.0.0
 _ZNK15KPageWidgetItem10metaObjectEv@Base 6.0.0
 _ZNK15KPageWidgetItem11isCheckableEv@Base 6.0.0
 _ZNK15KPageWidgetItem15isHeaderVisibleEv@Base 6.0.0
 _ZNK15KPageWidgetItem4iconEv@Base 6.0.0
 _ZNK15KPageWidgetItem4nameEv@Base 6.0.0
 _ZNK15KPageWidgetItem6headerEv@Base 6.0.0
 _ZNK15KPageWidgetItem6widgetEv@Base 6.0.0
 _ZNK15KPageWidgetItem9isCheckedEv@Base 6.0.0
 _ZNK15KPageWidgetItem9isEnabledEv@Base 6.0.0
 _ZNK15KPasswordDialog10metaObjectEv@Base 6.0.0
 _ZNK15KPasswordDialog12keepPasswordEv@Base 6.0.0
 _ZNK15KPasswordDialog13anonymousModeEv@Base 6.0.0
 _ZNK15KPasswordDialog18revealPasswordModeEv@Base 6.0.0
 _ZNK15KPasswordDialog25isRevealPasswordAvailableEv@Base 6.0.0
 _ZNK15KPasswordDialog4iconEv@Base 6.0.0
 _ZNK15KPasswordDialog6domainEv@Base 6.0.0
 _ZNK15KPasswordDialog6promptEv@Base 6.0.0
 _ZNK15KPasswordDialog8passwordEv@Base 6.0.0
 _ZNK15KPasswordDialog8usernameEv@Base 6.0.0
 _ZNK15KPasswordDialog9buttonBoxEv@Base 6.0.0
 _ZNK15KPixmapSequence10frameCountEv@Base 6.0.0
 _ZNK15KPixmapSequence7frameAtEi@Base 6.0.0
 _ZNK15KPixmapSequence7isEmptyEv@Base 6.0.0
 _ZNK15KPixmapSequence7isValidEv@Base 6.0.0
 _ZNK15KPixmapSequence9frameSizeEv@Base 6.0.0
 _ZNK15KTwoFingerSwipe10metaObjectEv@Base 6.0.0
 _ZNK15KTwoFingerSwipe10swipeAngleEv@Base 6.0.0
 _ZNK15KTwoFingerSwipe3posEv@Base 6.0.0
 _ZNK15KTwoFingerSwipe8scenePosEv@Base 6.0.0
 _ZNK15KTwoFingerSwipe9screenPosEv@Base 6.0.0
 _ZNK16KAssistantDialog10backButtonEv@Base 6.0.0
 _ZNK16KAssistantDialog10metaObjectEv@Base 6.0.0
 _ZNK16KAssistantDialog10nextButtonEv@Base 6.0.0
 _ZNK16KAssistantDialog12finishButtonEv@Base 6.0.0
 _ZNK16KAssistantDialog13isAppropriateEP15KPageWidgetItem@Base 6.0.0
 _ZNK16KAssistantDialog7isValidEP15KPageWidgetItem@Base 6.0.0
 _ZNK16KDatePickerPopup10datePickerEv@Base 6.0.0
 _ZNK16KDatePickerPopup10metaObjectEv@Base 6.0.0
 _ZNK16KDatePickerPopup5modesEv@Base 6.0.0
 _ZNK16KDatePickerPopup7dateMapEv@Base 6.0.0
 _ZNK16KMimeTypeChooser10metaObjectEv@Base 6.0.0
 _ZNK16KMimeTypeChooser8patternsEv@Base 6.0.0
 _ZNK16KMimeTypeChooser9mimeTypesEv@Base 6.0.0
 _ZNK16KPageWidgetModel10metaObjectEv@Base 6.0.0
 _ZNK16KPageWidgetModel11columnCountERK11QModelIndex@Base 6.0.0
 _ZNK16KPageWidgetModel4dataERK11QModelIndexi@Base 6.0.0
 _ZNK16KPageWidgetModel4itemERK11QModelIndex@Base 6.0.0
 _ZNK16KPageWidgetModel5flagsERK11QModelIndex@Base 6.0.0
 _ZNK16KPageWidgetModel5indexEPK15KPageWidgetItem@Base 6.0.0
 _ZNK16KPageWidgetModel5indexEiiRK11QModelIndex@Base 6.0.0
 _ZNK16KPageWidgetModel6parentERK11QModelIndex@Base 6.0.0
 _ZNK16KPageWidgetModel8rowCountERK11QModelIndex@Base 6.0.0
 _ZNK16KRecentFilesMenu10metaObjectEv@Base 6.0.0
 _ZNK16KRecentFilesMenu11recentFilesEv@Base 6.0.0
 _ZNK16KRecentFilesMenu12maximumItemsEv@Base 6.0.0
 _ZNK16KRecentFilesMenu5groupEv@Base 6.0.0
 _ZNK17KGradientSelector10firstColorEv@Base 6.0.0
 _ZNK17KGradientSelector10metaObjectEv@Base 6.0.0
 _ZNK17KGradientSelector10secondTextEv@Base 6.0.0
 _ZNK17KGradientSelector11minimumSizeEv@Base 6.0.0
 _ZNK17KGradientSelector11secondColorEv@Base 6.0.0
 _ZNK17KGradientSelector5stopsEv@Base 6.0.0
 _ZNK17KGradientSelector9firstTextEv@Base 6.0.0
 _ZNK17KPasswordLineEdit10isReadOnlyEv@Base 6.0.0
 _ZNK17KPasswordLineEdit10metaObjectEv@Base 6.0.0
 _ZNK17KPasswordLineEdit18revealPasswordModeEv@Base 6.0.0
 _ZNK17KPasswordLineEdit20isClearButtonEnabledEv@Base 6.0.0
 _ZNK17KPasswordLineEdit20toggleEchoModeActionEv@Base 6.0.0
 _ZNK17KPasswordLineEdit25isRevealPasswordAvailableEv@Base 6.0.0
 _ZNK17KPasswordLineEdit8echoModeEv@Base 6.0.0
 _ZNK17KPasswordLineEdit8lineEditEv@Base 6.0.0
 _ZNK17KPasswordLineEdit8passwordEv@Base 6.0.0
 _ZNK18KFontChooserDialog10metaObjectEv@Base 6.0.0
 _ZNK18KFontChooserDialog4fontEv@Base 6.0.0
 _ZNK18KMultiTabBarButton10metaObjectEv@Base 6.0.0
 _ZNK18KMultiTabBarButton2idEv@Base 6.0.0
 _ZNK18KNewPasswordDialog10metaObjectEv@Base 6.0.0
 _ZNK18KNewPasswordDialog18revealPasswordModeEv@Base 6.0.0
 _ZNK18KNewPasswordDialog19allowEmptyPasswordsEv@Base 6.0.0
 _ZNK18KNewPasswordDialog21maximumPasswordLengthEv@Base 6.0.0
 _ZNK18KNewPasswordDialog21minimumPasswordLengthEv@Base 6.0.0
 _ZNK18KNewPasswordDialog22backgroundWarningColorEv@Base 6.0.0
 _ZNK18KNewPasswordDialog24reasonablePasswordLengthEv@Base 6.0.0
 _ZNK18KNewPasswordDialog25isRevealPasswordAvailableEv@Base 6.0.0
 _ZNK18KNewPasswordDialog28passwordStrengthWarningLevelEv@Base 6.0.0
 _ZNK18KNewPasswordDialog4iconEv@Base 6.0.0
 _ZNK18KNewPasswordDialog6promptEv@Base 6.0.0
 _ZNK18KNewPasswordDialog8passwordEv@Base 6.0.0
 _ZNK18KNewPasswordWidget10metaObjectEv@Base 6.0.0
 _ZNK18KNewPasswordWidget14passwordStatusEv@Base 6.0.0
 _ZNK18KNewPasswordWidget18revealPasswordModeEv@Base 6.0.0
 _ZNK18KNewPasswordWidget19allowEmptyPasswordsEv@Base 6.0.0
 _ZNK18KNewPasswordWidget21maximumPasswordLengthEv@Base 6.0.0
 _ZNK18KNewPasswordWidget21minimumPasswordLengthEv@Base 6.0.0
 _ZNK18KNewPasswordWidget22backgroundWarningColorEv@Base 6.0.0
 _ZNK18KNewPasswordWidget24reasonablePasswordLengthEv@Base 6.0.0
 _ZNK18KNewPasswordWidget25isRevealPasswordAvailableEv@Base 6.0.0
 _ZNK18KNewPasswordWidget28passwordStrengthWarningLevelEv@Base 6.0.0
 _ZNK18KNewPasswordWidget30isPasswordStrengthMeterVisibleEv@Base 6.0.0
 _ZNK18KNewPasswordWidget8passwordEv@Base 6.0.0
 _ZNK18KSqueezedTextLabel10isSqueezedEv@Base 6.0.0
 _ZNK18KSqueezedTextLabel10metaObjectEv@Base 6.0.0
 _ZNK18KSqueezedTextLabel12contentsRectEv@Base 6.0.0
 _ZNK18KSqueezedTextLabel13textElideModeEv@Base 6.0.0
 _ZNK18KSqueezedTextLabel15minimumSizeHintEv@Base 6.0.0
 _ZNK18KSqueezedTextLabel8fullTextEv@Base 6.0.0
 _ZNK18KSqueezedTextLabel8sizeHintEv@Base 6.0.0
 _ZNK19KToolBarLabelAction10metaObjectEv@Base 6.0.0
 _ZNK19KToolBarLabelAction5buddyEv@Base 6.0.0
 _ZNK19KToolBarPopupAction10metaObjectEv@Base 6.0.0
 _ZNK19KToolBarPopupAction9popupMenuEv@Base 6.0.0
 _ZNK19KToolBarPopupAction9popupModeEv@Base 6.0.0
 _ZNK20KBusyIndicatorWidget10metaObjectEv@Base 6.0.0
 _ZNK20KBusyIndicatorWidget15minimumSizeHintEv@Base 6.0.0
 _ZNK20KCollapsibleGroupBox10isExpandedEv@Base 6.0.0
 _ZNK20KCollapsibleGroupBox10metaObjectEv@Base 6.0.0
 _ZNK20KCollapsibleGroupBox15minimumSizeHintEv@Base 6.0.0
 _ZNK20KCollapsibleGroupBox5titleEv@Base 6.0.0
 _ZNK20KCollapsibleGroupBox8sizeHintEv@Base 6.0.0
 _ZNK20KToolBarSpacerAction10metaObjectEv@Base 6.0.0
 _ZNK20KViewStateSerializer10metaObjectEv@Base 6.0.0
 _ZNK20KViewStateSerializer11scrollStateEv@Base 6.0.0
 _ZNK20KViewStateSerializer13expansionKeysEv@Base 6.0.0
 _ZNK20KViewStateSerializer13selectionKeysEv@Base 6.0.0
 _ZNK20KViewStateSerializer14selectionModelEv@Base 6.0.0
 _ZNK20KViewStateSerializer15currentIndexKeyEv@Base 6.0.0
 _ZNK20KViewStateSerializer4viewEv@Base 6.0.0
 _ZNK21KPixmapSequenceWidget10metaObjectEv@Base 6.0.0
 _ZNK21KPixmapSequenceWidget8intervalEv@Base 6.0.0
 _ZNK21KPixmapSequenceWidget8sequenceEv@Base 6.0.0
 _ZNK21KPixmapSequenceWidget8sizeHintEv@Base 6.0.0
 _ZNK22KMimeTypeChooserDialog10metaObjectEv@Base 6.0.0
 _ZNK22KMimeTypeChooserDialog8sizeHintEv@Base 6.0.0
 _ZNK23KToggleFullScreenAction10metaObjectEv@Base 6.0.0
 _ZNK23KTwoFingerTapRecognizer9tapRadiusEv@Base 6.0.0
 _ZNK24KDragWidgetDecoratorBase10metaObjectEv@Base 6.0.0
 _ZNK24KDragWidgetDecoratorBase13isDragEnabledEv@Base 6.0.0
 _ZNK24KDragWidgetDecoratorBase15decoratedWidgetEv@Base 6.0.0
 _ZNK24KSplitterCollapserButton10metaObjectEv@Base 6.0.0
 _ZNK24KSplitterCollapserButton17isWidgetCollapsedEv@Base 6.0.0
 _ZNK24KSplitterCollapserButton8sizeHintEv@Base 6.0.0
 _ZNK24KViewStateMaintainerBase10metaObjectEv@Base 6.0.0
 _ZNK24KViewStateMaintainerBase14selectionModelEv@Base 6.0.0
 _ZNK24KViewStateMaintainerBase4viewEv@Base 6.0.0
 _ZNK25KTwoFingerSwipeRecognizer12maxSwipeTimeEv@Base 6.0.0
 _ZNK25KTwoFingerSwipeRecognizer17minSswipeDistanceEv@Base 6.0.0
 _ZNK27KLineEditUrlDropEventFilter10metaObjectEv@Base 6.0.0
 _ZNK27KPixmapRegionSelectorDialog10metaObjectEv@Base 6.0.0
 _ZNK27KPixmapRegionSelectorDialog26pixmapRegionSelectorWidgetEv@Base 6.0.0
 _ZNK27KPixmapRegionSelectorWidget10metaObjectEv@Base 6.0.0
 _ZNK27KPixmapRegionSelectorWidget13selectedImageEv@Base 6.0.0
 _ZNK27KPixmapRegionSelectorWidget14selectedRegionEv@Base 6.0.0
 _ZNK27KPixmapRegionSelectorWidget22unzoomedSelectedRegionEv@Base 6.0.0
 _ZNK27KPixmapRegionSelectorWidget6pixmapEv@Base 6.0.0
 _ZNK29KPixmapSequenceOverlayPainter10metaObjectEv@Base 6.0.0
 _ZNK29KPixmapSequenceOverlayPainter4rectEv@Base 6.0.0
 _ZNK29KPixmapSequenceOverlayPainter6offsetEv@Base 6.0.0
 _ZNK29KPixmapSequenceOverlayPainter8intervalEv@Base 6.0.0
 _ZNK29KPixmapSequenceOverlayPainter8sequenceEv@Base 6.0.0
 _ZNK29KPixmapSequenceOverlayPainter9alignmentEv@Base 6.0.0
 _ZNK4KLed10darkFactorEv@Base 6.0.0
 _ZNK4KLed10metaObjectEv@Base 6.0.0
 _ZNK4KLed15minimumSizeHintEv@Base 6.0.0
 _ZNK4KLed4lookEv@Base 6.0.0
 _ZNK4KLed5colorEv@Base 6.0.0
 _ZNK4KLed5shapeEv@Base 6.0.0
 _ZNK4KLed5stateEv@Base 6.0.0
 _ZNK4KLed8sizeHintEv@Base 6.0.0
 _ZNK6KRuler10metaObjectEv@Base 6.0.0
 _ZNK6KRuler11lengthFixedEv@Base 6.0.0
 _ZNK6KRuler11showPointerEv@Base 6.0.0
 _ZNK6KRuler12pixelPerMarkEv@Base 6.0.0
 _ZNK6KRuler12showBigMarksEv@Base 6.0.0
 _ZNK6KRuler12showEndLabelEv@Base 6.0.0
 _ZNK6KRuler12showEndMarksEv@Base 6.0.0
 _ZNK6KRuler13showTinyMarksEv@Base 6.0.0
 _ZNK6KRuler15bigMarkDistanceEv@Base 6.0.0
 _ZNK6KRuler15showLittleMarksEv@Base 6.0.0
 _ZNK6KRuler15showMediumMarksEv@Base 6.0.0
 _ZNK6KRuler16tinyMarkDistanceEv@Base 6.0.0
 _ZNK6KRuler18littleMarkDistanceEv@Base 6.0.0
 _ZNK6KRuler18mediumMarkDistanceEv@Base 6.0.0
 _ZNK6KRuler6lengthEv@Base 6.0.0
 _ZNK6KRuler6offsetEv@Base 6.0.0
 _ZNK6KRuler8endLabelEv@Base 6.0.0
 _ZNK6KRuler9endOffsetEv@Base 6.0.0
 _ZNK8KGuiItem4iconEv@Base 6.0.0
 _ZNK8KGuiItem4textEv@Base 6.0.0
 _ZNK8KGuiItem7hasIconEv@Base 6.0.0
 _ZNK8KGuiItem7toolTipEv@Base 6.0.0
 _ZNK8KGuiItem8iconNameEv@Base 6.0.0
 _ZNK8KGuiItem9isEnabledEv@Base 6.0.0
 _ZNK8KGuiItem9plainTextEv@Base 6.0.0
 _ZNK8KGuiItem9whatsThisEv@Base 6.0.0
 _ZNK9KPageView10metaObjectEv@Base 6.0.0
 _ZNK9KPageView10pageFooterEv@Base 6.0.0
 _ZNK9KPageView10pageHeaderEv@Base 6.0.0
 _ZNK9KPageView11currentPageEv@Base 6.0.0
 _ZNK9KPageView12itemDelegateEv@Base 6.0.0
 _ZNK9KPageView12viewPositionEv@Base 6.0.0
 _ZNK9KPageView14showPageHeaderEv@Base 6.0.0
 _ZNK9KPageView5modelEv@Base 6.0.0
 _ZNK9KPageView8faceTypeEv@Base 6.0.0
 _ZNK9KSelector10metaObjectEv@Base 6.0.0
 _ZNK9KSelector12contentsRectEv@Base 6.0.0
 _ZNK9KSelector14arrowDirectionEv@Base 6.0.0
 _ZNK9KSelector6indentEv@Base 6.0.0
 _ZNK9KUrlLabel10metaObjectEv@Base 6.0.0
 _ZNK9KUrlLabel13isGlowEnabledEv@Base 6.0.0
 _ZNK9KUrlLabel14isFloatEnabledEv@Base 6.0.0
 _ZNK9KUrlLabel15alternatePixmapEv@Base 6.0.0
 _ZNK9KUrlLabel3urlEv@Base 6.0.0
 _ZNK9KUrlLabel7tipTextEv@Base 6.0.0
 _ZNK9KUrlLabel7useTipsEv@Base 6.0.0
 _ZNK9KUrlLabel9useCursorEv@Base 6.0.0
 (optional=templinst|arch=amd64)_ZNKSt8_Rb_treeI7QStringSt4pairIKS0_S0_ESt10_Select1stIS3_ESt4lessIS0_ESaIS3_EE4findERS2_@Base 6.0.0
 (optional=templinst)_ZNSt8_Rb_treeI5QDateSt4pairIKS0_7QStringESt10_Select1stIS4_ESt4lessIS0_ESaIS4_EE12_M_erase_auxESt23_Rb_tree_const_iteratorIS4_ESC_@Base 6.0.0
 (optional=templinst|arch=amd64 loong64 mips64el ppc64el riscv64 sparc64)_ZNSt8_Rb_treeI5QDateSt4pairIKS0_7QStringESt10_Select1stIS4_ESt4lessIS0_ESaIS4_EE16_M_insert_uniqueIS4_EES1_ISt17_Rb_tree_iteratorIS4_EbEOT_@Base 6.0.0
 (optional=templinst|arch=i386)_ZNSt8_Rb_treeI5QDateSt4pairIKS0_7QStringESt10_Select1stIS4_ESt4lessIS0_ESaIS4_EE24_M_get_insert_unique_posERS2_@Base 6.0.0
 (optional=templinst|arch=i386)_ZNSt8_Rb_treeI5QDateSt4pairIKS0_7QStringESt10_Select1stIS4_ESt4lessIS0_ESaIS4_EE29_M_get_insert_hint_unique_posESt23_Rb_tree_const_iteratorIS4_ERS2_@Base 6.0.0
 (optional=templinst|arch=!i386 !powerpc !ppc64 !s390x)_ZNSt8_Rb_treeI7QStringSt4pairIKS0_S0_ESt10_Select1stIS3_EPFbRS2_S6_ESaIS3_EE14_M_insert_nodeEPSt18_Rb_tree_node_baseSC_PSt13_Rb_tree_nodeIS3_E@Base 6.0.0
 (optional=templinst)_ZNSt8_Rb_treeI7QStringSt4pairIKS0_S0_ESt10_Select1stIS3_EPFbRS2_S6_ESaIS3_EE24_M_get_insert_unique_posES6_@Base 6.0.0
 (optional=templinst)_ZNSt8_Rb_treeI7QStringSt4pairIKS0_S0_ESt10_Select1stIS3_EPFbRS2_S6_ESaIS3_EE29_M_get_insert_hint_unique_posESt23_Rb_tree_const_iteratorIS3_ES6_@Base 6.0.0
 (optional=templinst|arch=amd64 loong64 mips64el ppc64el riscv64 sparc64)_ZNSt8_Rb_treeI7QStringSt4pairIKS0_S0_ESt10_Select1stIS3_ESt4lessIS0_ESaIS3_EE16_M_insert_uniqueIS3_EES1_ISt17_Rb_tree_iteratorIS3_EbEOT_@Base 6.0.0
 (optional=templinst)_ZNSt8_Rb_treeI7QStringSt4pairIKS0_S0_ESt10_Select1stIS3_ESt4lessIS0_ESaIS3_EE24_M_get_insert_unique_posERS2_@Base 6.0.0
 (optional=templinst)_ZNSt8_Rb_treeI7QStringSt4pairIKS0_S0_ESt10_Select1stIS3_ESt4lessIS0_ESaIS3_EE29_M_get_insert_hint_unique_posESt23_Rb_tree_const_iteratorIS3_ERS2_@Base 6.0.0
 (optional=templinst)_ZNSt8_Rb_treeIP7QWidgetSt4pairIKS1_iESt10_Select1stIS4_ESt4lessIS1_ESaIS4_EE16_M_insert_uniqueIS4_EES2_ISt17_Rb_tree_iteratorIS4_EbEOT_@Base 6.0.0
 _ZTI10KPageModel@Base 6.0.0
 _ZTI10KSeparator@Base 6.0.0
 _ZTI11KActionMenu@Base 6.0.0
 _ZTI11KCharSelect@Base 6.0.0
 _ZTI11KColorCombo@Base 6.0.0
 _ZTI11KDatePicker@Base 6.0.0
 _ZTI11KDualAction@Base 6.0.0
 _ZTI11KFontAction@Base 6.0.0
 _ZTI11KPageDialog@Base 6.0.0
 _ZTI11KPageWidget@Base 6.0.0
 _ZTI11KPopupFrame@Base 6.0.0
 _ZTI11KXYSelector@Base 6.0.0
 _ZTI12KCapacityBar@Base 6.0.0
 _ZTI12KColorButton@Base 6.0.0
 _ZTI12KFontChooser@Base 6.0.0
 _ZTI12KMultiTabBar@Base 6.0.0
 _ZTI12KTitleWidget@Base 6.0.0
 _ZTI13KDateComboBox@Base 6.0.0
 _ZTI13KDateTimeEdit@Base 6.0.0
 _ZTI13KRatingWidget@Base 6.0.0
 _ZTI13KSelectAction@Base 6.0.0
 _ZTI13KTimeComboBox@Base 6.0.0
 _ZTI13KToggleAction@Base 6.0.0
 _ZTI13KTwoFingerTap@Base 6.0.0
 _ZTI14KColumnResizer@Base 6.0.0
 _ZTI14KFontRequester@Base 6.0.0
 _ZTI14KMessageDialog@Base 6.0.0
 _ZTI14KMessageWidget@Base 6.0.0
 _ZTI14KToolTipWidget@Base 6.0.0
 _ZTI15KActionSelector@Base 6.0.0
 _ZTI15KAnimatedButton@Base 6.0.0
 _ZTI15KEditListWidget@Base 6.0.0
 _ZTI15KFontSizeAction@Base 6.0.0
 _ZTI15KMultiTabBarTab@Base 6.0.0
 _ZTI15KPageWidgetItem@Base 6.0.0
 _ZTI15KPasswordDialog@Base 6.0.0
 _ZTI15KTwoFingerSwipe@Base 6.0.0
 _ZTI16KAssistantDialog@Base 6.0.0
 _ZTI16KDatePickerPopup@Base 6.0.0
 _ZTI16KMimeTypeChooser@Base 6.0.0
 _ZTI16KPageWidgetModel@Base 6.0.0
 _ZTI16KRecentFilesMenu@Base 6.0.0
 _ZTI17KGradientSelector@Base 6.0.0
 _ZTI17KPasswordLineEdit@Base 6.0.0
 _ZTI18KFontChooserDialog@Base 6.0.0
 _ZTI18KMultiTabBarButton@Base 6.0.0
 _ZTI18KNewPasswordDialog@Base 6.0.0
 _ZTI18KNewPasswordWidget@Base 6.0.0
 _ZTI18KSqueezedTextLabel@Base 6.0.0
 _ZTI19KToolBarLabelAction@Base 6.0.0
 _ZTI19KToolBarPopupAction@Base 6.0.0
 _ZTI20KBusyIndicatorWidget@Base 6.0.0
 _ZTI20KCollapsibleGroupBox@Base 6.0.0
 _ZTI20KToolBarSpacerAction@Base 6.0.0
 _ZTI20KViewStateSerializer@Base 6.0.0
 _ZTI21KPixmapSequenceWidget@Base 6.0.0
 _ZTI22KMimeTypeChooserDialog@Base 6.0.0
 _ZTI23KToggleFullScreenAction@Base 6.0.0
 _ZTI23KTwoFingerTapRecognizer@Base 6.0.0
 _ZTI24KDragWidgetDecoratorBase@Base 6.0.0
 _ZTI24KSplitterCollapserButton@Base 6.0.0
 _ZTI24KViewStateMaintainerBase@Base 6.0.0
 _ZTI25KTwoFingerSwipeRecognizer@Base 6.0.0
 _ZTI27KLineEditUrlDropEventFilter@Base 6.0.0
 _ZTI27KPixmapRegionSelectorDialog@Base 6.0.0
 _ZTI27KPixmapRegionSelectorWidget@Base 6.0.0
 _ZTI29KPixmapSequenceOverlayPainter@Base 6.0.0
 _ZTI4KLed@Base 6.0.0
 _ZTI6KRuler@Base 6.0.0
 _ZTI9KPageView@Base 6.0.0
 _ZTI9KSelector@Base 6.0.0
 _ZTI9KUrlLabel@Base 6.0.0
 _ZTIN15KEditListWidget12CustomEditorE@Base 6.0.0
 _ZTIZN9QMetaType17registerConverterI4QMapI5QDate7QStringE9QIterableI16QMetaAssociationEN9QtPrivate34QAssociativeIterableConvertFunctorIS4_EEEEbT1_EUlPKvPvE_@Base 6.0.0
 _ZTIZN9QMetaType17registerConverterI5QListI12QKeySequenceE9QIterableI13QMetaSequenceEN9QtPrivate33QSequentialIterableConvertFunctorIS3_EEEEbT1_EUlPKvPvE_@Base 6.0.0
 _ZTIZN9QMetaType17registerConverterI5QListI5QCharE9QIterableI13QMetaSequenceEN9QtPrivate33QSequentialIterableConvertFunctorIS3_EEEEbT1_EUlPKvPvE_@Base 6.0.0
 _ZTIZN9QMetaType17registerConverterI5QListI5QTimeE9QIterableI13QMetaSequenceEN9QtPrivate33QSequentialIterableConvertFunctorIS3_EEEEbT1_EUlPKvPvE_@Base 6.0.0
 _ZTIZN9QMetaType17registerConverterI5QListI6QColorE9QIterableI13QMetaSequenceEN9QtPrivate33QSequentialIterableConvertFunctorIS3_EEEEbT1_EUlPKvPvE_@Base 6.0.0
 _ZTIZN9QMetaType17registerConverterI5QListI7QLocaleE9QIterableI13QMetaSequenceEN9QtPrivate33QSequentialIterableConvertFunctorIS3_EEEEbT1_EUlPKvPvE_@Base 6.0.0
 _ZTIZN9QMetaType17registerConverterI5QListIiE9QIterableI13QMetaSequenceEN9QtPrivate33QSequentialIterableConvertFunctorIS2_EEEEbT1_EUlPKvPvE_@Base 6.0.0
 _ZTIZN9QMetaType17registerConverterI5QListIjE9QIterableI13QMetaSequenceEN9QtPrivate33QSequentialIterableConvertFunctorIS2_EEEEbT1_EUlPKvPvE_@Base 6.0.0
 _ZTIZN9QMetaType19registerMutableViewI4QMapI5QDate7QStringE9QIterableI16QMetaAssociationEN9QtPrivate38QAssociativeIterableMutableViewFunctorIS4_EEEEbT1_EUlPvSC_E_@Base 6.0.0
 _ZTIZN9QMetaType19registerMutableViewI5QListI12QKeySequenceE9QIterableI13QMetaSequenceEN9QtPrivate37QSequentialIterableMutableViewFunctorIS3_EEEEbT1_EUlPvSB_E_@Base 6.0.0
 _ZTIZN9QMetaType19registerMutableViewI5QListI5QCharE9QIterableI13QMetaSequenceEN9QtPrivate37QSequentialIterableMutableViewFunctorIS3_EEEEbT1_EUlPvSB_E_@Base 6.0.0
 _ZTIZN9QMetaType19registerMutableViewI5QListI5QTimeE9QIterableI13QMetaSequenceEN9QtPrivate37QSequentialIterableMutableViewFunctorIS3_EEEEbT1_EUlPvSB_E_@Base 6.0.0
 _ZTIZN9QMetaType19registerMutableViewI5QListI6QColorE9QIterableI13QMetaSequenceEN9QtPrivate37QSequentialIterableMutableViewFunctorIS3_EEEEbT1_EUlPvSB_E_@Base 6.0.0
 _ZTIZN9QMetaType19registerMutableViewI5QListI7QLocaleE9QIterableI13QMetaSequenceEN9QtPrivate37QSequentialIterableMutableViewFunctorIS3_EEEEbT1_EUlPvSB_E_@Base 6.0.0
 _ZTIZN9QMetaType19registerMutableViewI5QListIiE9QIterableI13QMetaSequenceEN9QtPrivate37QSequentialIterableMutableViewFunctorIS2_EEEEbT1_EUlPvSA_E_@Base 6.0.0
 _ZTIZN9QMetaType19registerMutableViewI5QListIjE9QIterableI13QMetaSequenceEN9QtPrivate37QSequentialIterableMutableViewFunctorIS2_EEEEbT1_EUlPvSA_E_@Base 6.0.0
 _ZTS10KPageModel@Base 6.0.0
 _ZTS10KSeparator@Base 6.0.0
 _ZTS11KActionMenu@Base 6.0.0
 _ZTS11KCharSelect@Base 6.0.0
 _ZTS11KColorCombo@Base 6.0.0
 _ZTS11KDatePicker@Base 6.0.0
 _ZTS11KDualAction@Base 6.0.0
 _ZTS11KFontAction@Base 6.0.0
 _ZTS11KPageDialog@Base 6.0.0
 _ZTS11KPageWidget@Base 6.0.0
 _ZTS11KPopupFrame@Base 6.0.0
 _ZTS11KXYSelector@Base 6.0.0
 _ZTS12KCapacityBar@Base 6.0.0
 _ZTS12KColorButton@Base 6.0.0
 _ZTS12KFontChooser@Base 6.0.0
 _ZTS12KMultiTabBar@Base 6.0.0
 _ZTS12KTitleWidget@Base 6.0.0
 _ZTS13KDateComboBox@Base 6.0.0
 _ZTS13KDateTimeEdit@Base 6.0.0
 _ZTS13KRatingWidget@Base 6.0.0
 _ZTS13KSelectAction@Base 6.0.0
 _ZTS13KTimeComboBox@Base 6.0.0
 _ZTS13KToggleAction@Base 6.0.0
 _ZTS13KTwoFingerTap@Base 6.0.0
 _ZTS14KColumnResizer@Base 6.0.0
 _ZTS14KFontRequester@Base 6.0.0
 _ZTS14KMessageDialog@Base 6.0.0
 _ZTS14KMessageWidget@Base 6.0.0
 _ZTS14KToolTipWidget@Base 6.0.0
 _ZTS15KActionSelector@Base 6.0.0
 _ZTS15KAnimatedButton@Base 6.0.0
 _ZTS15KEditListWidget@Base 6.0.0
 _ZTS15KFontSizeAction@Base 6.0.0
 _ZTS15KMultiTabBarTab@Base 6.0.0
 _ZTS15KPageWidgetItem@Base 6.0.0
 _ZTS15KPasswordDialog@Base 6.0.0
 _ZTS15KTwoFingerSwipe@Base 6.0.0
 _ZTS16KAssistantDialog@Base 6.0.0
 _ZTS16KDatePickerPopup@Base 6.0.0
 _ZTS16KMimeTypeChooser@Base 6.0.0
 _ZTS16KPageWidgetModel@Base 6.0.0
 _ZTS16KRecentFilesMenu@Base 6.0.0
 _ZTS17KGradientSelector@Base 6.0.0
 _ZTS17KPasswordLineEdit@Base 6.0.0
 _ZTS18KFontChooserDialog@Base 6.0.0
 _ZTS18KMultiTabBarButton@Base 6.0.0
 _ZTS18KNewPasswordDialog@Base 6.0.0
 _ZTS18KNewPasswordWidget@Base 6.0.0
 _ZTS18KSqueezedTextLabel@Base 6.0.0
 _ZTS19KToolBarLabelAction@Base 6.0.0
 _ZTS19KToolBarPopupAction@Base 6.0.0
 _ZTS20KBusyIndicatorWidget@Base 6.0.0
 _ZTS20KCollapsibleGroupBox@Base 6.0.0
 _ZTS20KToolBarSpacerAction@Base 6.0.0
 _ZTS20KViewStateSerializer@Base 6.0.0
 _ZTS21KPixmapSequenceWidget@Base 6.0.0
 _ZTS22KMimeTypeChooserDialog@Base 6.0.0
 _ZTS23KToggleFullScreenAction@Base 6.0.0
 _ZTS23KTwoFingerTapRecognizer@Base 6.0.0
 _ZTS24KDragWidgetDecoratorBase@Base 6.0.0
 _ZTS24KSplitterCollapserButton@Base 6.0.0
 _ZTS24KViewStateMaintainerBase@Base 6.0.0
 _ZTS25KTwoFingerSwipeRecognizer@Base 6.0.0
 _ZTS27KLineEditUrlDropEventFilter@Base 6.0.0
 _ZTS27KPixmapRegionSelectorDialog@Base 6.0.0
 _ZTS27KPixmapRegionSelectorWidget@Base 6.0.0
 _ZTS29KPixmapSequenceOverlayPainter@Base 6.0.0
 _ZTS4KLed@Base 6.0.0
 _ZTS6KRuler@Base 6.0.0
 _ZTS9KPageView@Base 6.0.0
 _ZTS9KSelector@Base 6.0.0
 _ZTS9KUrlLabel@Base 6.0.0
 _ZTSN15KEditListWidget12CustomEditorE@Base 6.0.0
 _ZTSZN9QMetaType17registerConverterI4QMapI5QDate7QStringE9QIterableI16QMetaAssociationEN9QtPrivate34QAssociativeIterableConvertFunctorIS4_EEEEbT1_EUlPKvPvE_@Base 6.0.0
 _ZTSZN9QMetaType17registerConverterI5QListI12QKeySequenceE9QIterableI13QMetaSequenceEN9QtPrivate33QSequentialIterableConvertFunctorIS3_EEEEbT1_EUlPKvPvE_@Base 6.0.0
 _ZTSZN9QMetaType17registerConverterI5QListI5QCharE9QIterableI13QMetaSequenceEN9QtPrivate33QSequentialIterableConvertFunctorIS3_EEEEbT1_EUlPKvPvE_@Base 6.0.0
 _ZTSZN9QMetaType17registerConverterI5QListI5QTimeE9QIterableI13QMetaSequenceEN9QtPrivate33QSequentialIterableConvertFunctorIS3_EEEEbT1_EUlPKvPvE_@Base 6.0.0
 _ZTSZN9QMetaType17registerConverterI5QListI6QColorE9QIterableI13QMetaSequenceEN9QtPrivate33QSequentialIterableConvertFunctorIS3_EEEEbT1_EUlPKvPvE_@Base 6.0.0
 _ZTSZN9QMetaType17registerConverterI5QListI7QLocaleE9QIterableI13QMetaSequenceEN9QtPrivate33QSequentialIterableConvertFunctorIS3_EEEEbT1_EUlPKvPvE_@Base 6.0.0
 _ZTSZN9QMetaType17registerConverterI5QListIiE9QIterableI13QMetaSequenceEN9QtPrivate33QSequentialIterableConvertFunctorIS2_EEEEbT1_EUlPKvPvE_@Base 6.0.0
 _ZTSZN9QMetaType17registerConverterI5QListIjE9QIterableI13QMetaSequenceEN9QtPrivate33QSequentialIterableConvertFunctorIS2_EEEEbT1_EUlPKvPvE_@Base 6.0.0
 _ZTSZN9QMetaType19registerMutableViewI4QMapI5QDate7QStringE9QIterableI16QMetaAssociationEN9QtPrivate38QAssociativeIterableMutableViewFunctorIS4_EEEEbT1_EUlPvSC_E_@Base 6.0.0
 _ZTSZN9QMetaType19registerMutableViewI5QListI12QKeySequenceE9QIterableI13QMetaSequenceEN9QtPrivate37QSequentialIterableMutableViewFunctorIS3_EEEEbT1_EUlPvSB_E_@Base 6.0.0
 _ZTSZN9QMetaType19registerMutableViewI5QListI5QCharE9QIterableI13QMetaSequenceEN9QtPrivate37QSequentialIterableMutableViewFunctorIS3_EEEEbT1_EUlPvSB_E_@Base 6.0.0
 _ZTSZN9QMetaType19registerMutableViewI5QListI5QTimeE9QIterableI13QMetaSequenceEN9QtPrivate37QSequentialIterableMutableViewFunctorIS3_EEEEbT1_EUlPvSB_E_@Base 6.0.0
 _ZTSZN9QMetaType19registerMutableViewI5QListI6QColorE9QIterableI13QMetaSequenceEN9QtPrivate37QSequentialIterableMutableViewFunctorIS3_EEEEbT1_EUlPvSB_E_@Base 6.0.0
 _ZTSZN9QMetaType19registerMutableViewI5QListI7QLocaleE9QIterableI13QMetaSequenceEN9QtPrivate37QSequentialIterableMutableViewFunctorIS3_EEEEbT1_EUlPvSB_E_@Base 6.0.0
 _ZTSZN9QMetaType19registerMutableViewI5QListIiE9QIterableI13QMetaSequenceEN9QtPrivate37QSequentialIterableMutableViewFunctorIS2_EEEEbT1_EUlPvSA_E_@Base 6.0.0
 _ZTSZN9QMetaType19registerMutableViewI5QListIjE9QIterableI13QMetaSequenceEN9QtPrivate37QSequentialIterableMutableViewFunctorIS2_EEEEbT1_EUlPvSA_E_@Base 6.0.0
 _ZTV10KPageModel@Base 6.0.0
 _ZTV10KSeparator@Base 6.0.0
 _ZTV11KActionMenu@Base 6.0.0
 _ZTV11KCharSelect@Base 6.0.0
 _ZTV11KColorCombo@Base 6.0.0
 _ZTV11KDatePicker@Base 6.0.0
 _ZTV11KDualAction@Base 6.0.0
 _ZTV11KFontAction@Base 6.0.0
 _ZTV11KPageDialog@Base 6.0.0
 _ZTV11KPageWidget@Base 6.0.0
 _ZTV11KPopupFrame@Base 6.0.0
 _ZTV11KXYSelector@Base 6.0.0
 _ZTV12KCapacityBar@Base 6.0.0
 _ZTV12KColorButton@Base 6.0.0
 _ZTV12KFontChooser@Base 6.0.0
 _ZTV12KMultiTabBar@Base 6.0.0
 _ZTV12KTitleWidget@Base 6.0.0
 _ZTV13KDateComboBox@Base 6.0.0
 _ZTV13KDateTimeEdit@Base 6.0.0
 _ZTV13KRatingWidget@Base 6.0.0
 _ZTV13KSelectAction@Base 6.0.0
 _ZTV13KTimeComboBox@Base 6.0.0
 _ZTV13KToggleAction@Base 6.0.0
 _ZTV13KTwoFingerTap@Base 6.0.0
 _ZTV14KColumnResizer@Base 6.0.0
 _ZTV14KFontRequester@Base 6.0.0
 _ZTV14KMessageDialog@Base 6.0.0
 _ZTV14KMessageWidget@Base 6.0.0
 _ZTV14KToolTipWidget@Base 6.0.0
 _ZTV15KActionSelector@Base 6.0.0
 _ZTV15KAnimatedButton@Base 6.0.0
 _ZTV15KEditListWidget@Base 6.0.0
 _ZTV15KFontSizeAction@Base 6.0.0
 _ZTV15KMultiTabBarTab@Base 6.0.0
 _ZTV15KPageWidgetItem@Base 6.0.0
 _ZTV15KPasswordDialog@Base 6.0.0
 _ZTV15KTwoFingerSwipe@Base 6.0.0
 _ZTV16KAssistantDialog@Base 6.0.0
 _ZTV16KDatePickerPopup@Base 6.0.0
 _ZTV16KMimeTypeChooser@Base 6.0.0
 _ZTV16KPageWidgetModel@Base 6.0.0
 _ZTV16KRecentFilesMenu@Base 6.0.0
 _ZTV17KGradientSelector@Base 6.0.0
 _ZTV17KPasswordLineEdit@Base 6.0.0
 _ZTV18KFontChooserDialog@Base 6.0.0
 _ZTV18KMultiTabBarButton@Base 6.0.0
 _ZTV18KNewPasswordDialog@Base 6.0.0
 _ZTV18KNewPasswordWidget@Base 6.0.0
 _ZTV18KSqueezedTextLabel@Base 6.0.0
 _ZTV19KToolBarLabelAction@Base 6.0.0
 _ZTV19KToolBarPopupAction@Base 6.0.0
 _ZTV20KBusyIndicatorWidget@Base 6.0.0
 _ZTV20KCollapsibleGroupBox@Base 6.0.0
 _ZTV20KToolBarSpacerAction@Base 6.0.0
 _ZTV20KViewStateSerializer@Base 6.0.0
 _ZTV21KPixmapSequenceWidget@Base 6.0.0
 _ZTV22KMimeTypeChooserDialog@Base 6.0.0
 _ZTV23KToggleFullScreenAction@Base 6.0.0
 _ZTV23KTwoFingerTapRecognizer@Base 6.0.0
 _ZTV24KDragWidgetDecoratorBase@Base 6.0.0
 _ZTV24KSplitterCollapserButton@Base 6.0.0
 _ZTV24KViewStateMaintainerBase@Base 6.0.0
 _ZTV25KTwoFingerSwipeRecognizer@Base 6.0.0
 _ZTV27KLineEditUrlDropEventFilter@Base 6.0.0
 _ZTV27KPixmapRegionSelectorDialog@Base 6.0.0
 _ZTV27KPixmapRegionSelectorWidget@Base 6.0.0
 _ZTV29KPixmapSequenceOverlayPainter@Base 6.0.0
 _ZTV4KLed@Base 6.0.0
 _ZTV6KRuler@Base 6.0.0
 _ZTV9KPageView@Base 6.0.0
 _ZTV9KSelector@Base 6.0.0
 _ZTV9KUrlLabel@Base 6.0.0
 _ZTVN15KEditListWidget12CustomEditorE@Base 6.0.0
 (optional=templinst)_ZZN9QMetaType21registerConverterImplI4QMapI5QDate7QStringE9QIterableI16QMetaAssociationEEEbSt8functionIFbPKvPvEES_S_E10unregister@Base 6.0.0
 (optional=templinst)_ZZN9QMetaType21registerConverterImplI5QListI12QKeySequenceE9QIterableI13QMetaSequenceEEEbSt8functionIFbPKvPvEES_S_E10unregister@Base 6.0.0
 (optional=templinst)_ZZN9QMetaType21registerConverterImplI5QListI5QCharE9QIterableI13QMetaSequenceEEEbSt8functionIFbPKvPvEES_S_E10unregister@Base 6.0.0
 (optional=templinst)_ZZN9QMetaType21registerConverterImplI5QListI5QTimeE9QIterableI13QMetaSequenceEEEbSt8functionIFbPKvPvEES_S_E10unregister@Base 6.0.0
 (optional=templinst)_ZZN9QMetaType21registerConverterImplI5QListI6QColorE9QIterableI13QMetaSequenceEEEbSt8functionIFbPKvPvEES_S_E10unregister@Base 6.0.0
 (optional=templinst)_ZZN9QMetaType21registerConverterImplI5QListI7QLocaleE9QIterableI13QMetaSequenceEEEbSt8functionIFbPKvPvEES_S_E10unregister@Base 6.0.0
 (optional=templinst)_ZZN9QMetaType21registerConverterImplI5QListIiE9QIterableI13QMetaSequenceEEEbSt8functionIFbPKvPvEES_S_E10unregister@Base 6.0.0
 (optional=templinst)_ZZN9QMetaType21registerConverterImplI5QListIjE9QIterableI13QMetaSequenceEEEbSt8functionIFbPKvPvEES_S_E10unregister@Base 6.0.0
 (optional=templinst)_ZZN9QMetaType23registerMutableViewImplI4QMapI5QDate7QStringE9QIterableI16QMetaAssociationEEEbSt8functionIFbPvS9_EES_S_E10unregister@Base 6.0.0
 (optional=templinst)_ZZN9QMetaType23registerMutableViewImplI5QListI12QKeySequenceE9QIterableI13QMetaSequenceEEEbSt8functionIFbPvS8_EES_S_E10unregister@Base 6.0.0
 (optional=templinst)_ZZN9QMetaType23registerMutableViewImplI5QListI5QCharE9QIterableI13QMetaSequenceEEEbSt8functionIFbPvS8_EES_S_E10unregister@Base 6.0.0
 (optional=templinst)_ZZN9QMetaType23registerMutableViewImplI5QListI5QTimeE9QIterableI13QMetaSequenceEEEbSt8functionIFbPvS8_EES_S_E10unregister@Base 6.0.0
 (optional=templinst)_ZZN9QMetaType23registerMutableViewImplI5QListI6QColorE9QIterableI13QMetaSequenceEEEbSt8functionIFbPvS8_EES_S_E10unregister@Base 6.0.0
 (optional=templinst)_ZZN9QMetaType23registerMutableViewImplI5QListI7QLocaleE9QIterableI13QMetaSequenceEEEbSt8functionIFbPvS8_EES_S_E10unregister@Base 6.0.0
 (optional=templinst)_ZZN9QMetaType23registerMutableViewImplI5QListIiE9QIterableI13QMetaSequenceEEEbSt8functionIFbPvS7_EES_S_E10unregister@Base 6.0.0
 (optional=templinst)_ZZN9QMetaType23registerMutableViewImplI5QListIjE9QIterableI13QMetaSequenceEEEbSt8functionIFbPvS7_EES_S_E10unregister@Base 6.0.0
 (c++)"non-virtual thunk to KActionSelector::~KActionSelector()@Base" 6.0.0
 (c++)"non-virtual thunk to KAnimatedButton::~KAnimatedButton()@Base" 6.0.0
 (c++)"non-virtual thunk to KAssistantDialog::~KAssistantDialog()@Base" 6.0.0
 (c++)"non-virtual thunk to KBusyIndicatorWidget::~KBusyIndicatorWidget()@Base" 6.0.0
 (c++)"non-virtual thunk to KCapacityBar::~KCapacityBar()@Base" 6.0.0
 (c++)"non-virtual thunk to KCharSelect::~KCharSelect()@Base" 6.0.0
 (c++)"non-virtual thunk to KCollapsibleGroupBox::~KCollapsibleGroupBox()@Base" 6.0.0
 (c++)"non-virtual thunk to KColorButton::~KColorButton()@Base" 6.0.0
 (c++)"non-virtual thunk to KColorCombo::~KColorCombo()@Base" 6.0.0
 (c++)"non-virtual thunk to KDateComboBox::~KDateComboBox()@Base" 6.0.0
 (c++)"non-virtual thunk to KDatePicker::~KDatePicker()@Base" 6.0.0
 (c++)"non-virtual thunk to KDatePickerPopup::~KDatePickerPopup()@Base" 6.0.0
 (c++)"non-virtual thunk to KDateTimeEdit::~KDateTimeEdit()@Base" 6.0.0
 (c++)"non-virtual thunk to KEditListWidget::~KEditListWidget()@Base" 6.0.0
 (c++)"non-virtual thunk to KFontChooser::~KFontChooser()@Base" 6.0.0
 (c++)"non-virtual thunk to KFontChooserDialog::~KFontChooserDialog()@Base" 6.0.0
 (c++)"non-virtual thunk to KFontRequester::~KFontRequester()@Base" 6.0.0
 (c++)"non-virtual thunk to KGradientSelector::~KGradientSelector()@Base" 6.0.0
 (c++)"non-virtual thunk to KLed::~KLed()@Base" 6.0.0
 (c++)"non-virtual thunk to KMessageDialog::~KMessageDialog()@Base" 6.0.0
 (c++)"non-virtual thunk to KMessageWidget::~KMessageWidget()@Base" 6.0.0
 (c++)"non-virtual thunk to KMimeTypeChooser::~KMimeTypeChooser()@Base" 6.0.0
 (c++)"non-virtual thunk to KMimeTypeChooserDialog::~KMimeTypeChooserDialog()@Base" 6.0.0
 (c++)"non-virtual thunk to KMultiTabBar::~KMultiTabBar()@Base" 6.0.0
 (c++)"non-virtual thunk to KMultiTabBarButton::~KMultiTabBarButton()@Base" 6.0.0
 (c++)"non-virtual thunk to KMultiTabBarTab::~KMultiTabBarTab()@Base" 6.0.0
 (c++)"non-virtual thunk to KNewPasswordDialog::~KNewPasswordDialog()@Base" 6.0.0
 (c++)"non-virtual thunk to KNewPasswordWidget::~KNewPasswordWidget()@Base" 6.0.0
 (c++)"non-virtual thunk to KPageDialog::~KPageDialog()@Base" 6.0.0
 (c++)"non-virtual thunk to KPageView::~KPageView()@Base" 6.0.0
 (c++)"non-virtual thunk to KPageWidget::~KPageWidget()@Base" 6.0.0
 (c++)"non-virtual thunk to KPasswordDialog::~KPasswordDialog()@Base" 6.0.0
 (c++)"non-virtual thunk to KPasswordLineEdit::~KPasswordLineEdit()@Base" 6.0.0
 (c++)"non-virtual thunk to KPixmapRegionSelectorDialog::~KPixmapRegionSelectorDialog()@Base" 6.0.0
 (c++)"non-virtual thunk to KPixmapRegionSelectorWidget::~KPixmapRegionSelectorWidget()@Base" 6.0.0
 (c++)"non-virtual thunk to KPixmapSequenceWidget::~KPixmapSequenceWidget()@Base" 6.0.0
 (c++)"non-virtual thunk to KPopupFrame::~KPopupFrame()@Base" 6.0.0
 (c++)"non-virtual thunk to KRatingWidget::~KRatingWidget()@Base" 6.0.0
 (c++)"non-virtual thunk to KRecentFilesMenu::~KRecentFilesMenu()@Base" 6.0.0
 (c++)"non-virtual thunk to KRuler::~KRuler()@Base" 6.0.0
 (c++)"non-virtual thunk to KSelector::~KSelector()@Base" 6.0.0
 (c++)"non-virtual thunk to KSeparator::~KSeparator()@Base" 6.0.0
 (c++)"non-virtual thunk to KSplitterCollapserButton::~KSplitterCollapserButton()@Base" 6.0.0
 (c++)"non-virtual thunk to KSqueezedTextLabel::~KSqueezedTextLabel()@Base" 6.0.0
 (c++)"non-virtual thunk to KTimeComboBox::~KTimeComboBox()@Base" 6.0.0
 (c++)"non-virtual thunk to KTitleWidget::~KTitleWidget()@Base" 6.0.0
 (c++)"non-virtual thunk to KToolTipWidget::~KToolTipWidget()@Base" 6.0.0
 (c++)"non-virtual thunk to KUrlLabel::~KUrlLabel()@Base" 6.0.0
 (c++)"non-virtual thunk to KXYSelector::~KXYSelector()@Base" 6.0.0
